ARM GAS  C:\Users\casey\AppData\Local\Temp\cc4lJRIb.s 			page 1


   1              		.syntax unified
   2              		.cpu cortex-m0
   3              		.fpu softvfp
   4              		.eabi_attribute 20, 1
   5              		.eabi_attribute 21, 1
   6              		.eabi_attribute 23, 3
   7              		.eabi_attribute 24, 1
   8              		.eabi_attribute 25, 1
   9              		.eabi_attribute 26, 1
  10              		.eabi_attribute 30, 1
  11              		.eabi_attribute 34, 0
  12              		.eabi_attribute 18, 4
  13              		.thumb
  14              		.syntax unified
  15              		.file	"main.c"
  16              		.text
  17              	.Ltext0:
  18              		.cfi_sections	.debug_frame
  19              		.section	.text.main,"ax",%progbits
  20              		.align	2
  21              		.global	main
  22              		.code	16
  23              		.thumb_func
  24              		.type	main, %function
  25              	main:
  26              	.LFB35:
  27              		.file 1 "main.c"
   1:main.c        **** /* ========================================
   2:main.c        ****  *
   3:main.c        ****  * Copyright YOUR COMPANY, THE YEAR
   4:main.c        ****  * All Rights Reserved
   5:main.c        ****  * UNPUBLISHED, LICENSED SOFTWARE.
   6:main.c        ****  *
   7:main.c        ****  * CONFIDENTIAL AND PROPRIETARY INFORMATION
   8:main.c        ****  * WHICH IS THE PROPERTY OF your company.
   9:main.c        ****  *
  10:main.c        ****  * ========================================
  11:main.c        **** */
  12:main.c        **** #include "project.h"
  13:main.c        **** #include "../CANLib/CANPacket.h"
  14:main.c        **** 
  15:main.c        **** int main(void)
  16:main.c        **** {
  28              		.loc 1 16 0
  29              		.cfi_startproc
  30              		@ Volatile: function does not return.
  31              		@ args = 0, pretend = 0, frame = 0
  32              		@ frame_needed = 0, uses_anonymous_args = 0
  33 0000 70B5     		push	{r4, r5, r6, lr}
  34              		.cfi_def_cfa_offset 16
  35              		.cfi_offset 4, -16
  36              		.cfi_offset 5, -12
  37              		.cfi_offset 6, -8
  38              		.cfi_offset 14, -4
  17:main.c        ****     CyGlobalIntEnable; /* Enable global interrupts. */
  39              		.loc 1 17 0
  40              		.syntax divided
ARM GAS  C:\Users\casey\AppData\Local\Temp\cc4lJRIb.s 			page 2


  41              	@ 17 "main.c" 1
  42 0002 62B6     		CPSIE   i
  43              	@ 0 "" 2
  44              		.thumb
  45              		.syntax unified
  46              	.L2:
  18:main.c        **** 
  19:main.c        ****     /* Place your initialization/startup code here (e.g. MyInst_Start()) */
  20:main.c        **** 
  21:main.c        ****     for(;;)
  22:main.c        ****     {
  23:main.c        ****         LEDReg_Control = 1;
  47              		.loc 1 23 0 discriminator 1
  48 0004 074C     		ldr	r4, .L3
  49 0006 0125     		movs	r5, #1
  50 0008 2570     		strb	r5, [r4]
  24:main.c        ****         CyDelay(500);
  51              		.loc 1 24 0 discriminator 1
  52 000a FA26     		movs	r6, #250
  53 000c 7600     		lsls	r6, r6, #1
  54 000e 3000     		movs	r0, r6
  55 0010 FFF7FEFF 		bl	CyDelay
  56              	.LVL0:
  25:main.c        ****         LEDReg_Control = 0;
  57              		.loc 1 25 0 discriminator 1
  58 0014 0023     		movs	r3, #0
  59 0016 2370     		strb	r3, [r4]
  26:main.c        ****         CyDelay(500);
  60              		.loc 1 26 0 discriminator 1
  61 0018 3000     		movs	r0, r6
  62 001a FFF7FEFF 		bl	CyDelay
  63              	.LVL1:
  27:main.c        ****         LEDReg_Control = 1;
  64              		.loc 1 27 0 discriminator 1
  65 001e 2570     		strb	r5, [r4]
  66 0020 F0E7     		b	.L2
  67              	.L4:
  68 0022 C046     		.align	2
  69              	.L3:
  70 0024 73000F40 		.word	1074724979
  71              		.cfi_endproc
  72              	.LFE35:
  73              		.size	main, .-main
  74              		.text
  75              	.Letext0:
  76              		.file 2 "Generated_Source\\PSoC4/cytypes.h"
  77              		.file 3 "Generated_Source\\PSoC4/CyLib.h"