ARM GAS  C:\Users\M4rz4n\AppData\Local\Temp\ccgCe0Wa.s 			page 1


   1              		.syntax unified
   2              		.cpu cortex-m0
   3              		.fpu softvfp
   4              		.eabi_attribute 20, 1
   5              		.eabi_attribute 21, 1
   6              		.eabi_attribute 23, 3
   7              		.eabi_attribute 24, 1
   8              		.eabi_attribute 25, 1
   9              		.eabi_attribute 26, 1
  10              		.eabi_attribute 30, 1
  11              		.eabi_attribute 34, 0
  12              		.eabi_attribute 18, 4
  13              		.thumb
  14              		.syntax unified
  15              		.file	"BLDC_CAN.c"
  16              		.text
  17              	.Ltext0:
  18              		.cfi_sections	.debug_frame
  19              		.section	.text.SendEncoderData,"ax",%progbits
  20              		.align	2
  21              		.global	SendEncoderData
  22              		.code	16
  23              		.thumb_func
  24              		.type	SendEncoderData, %function
  25              	SendEncoderData:
  26              	.LFB35:
  27              		.file 1 "BLDC_CAN.c"
   1:BLDC_CAN.c    **** /* ========================================
   2:BLDC_CAN.c    ****  *
   3:BLDC_CAN.c    ****  * Copyright YOUR COMPANY, THE YEAR
   4:BLDC_CAN.c    ****  * All Rights Reserved
   5:BLDC_CAN.c    ****  * UNPUBLISHED, LICENSED SOFTWARE.
   6:BLDC_CAN.c    ****  *
   7:BLDC_CAN.c    ****  * CONFIDENTIAL AND PROPRIETARY INFORMATION
   8:BLDC_CAN.c    ****  * WHICH IS THE PROPERTY OF your company.
   9:BLDC_CAN.c    ****  *
  10:BLDC_CAN.c    ****  * ========================================
  11:BLDC_CAN.c    **** */
  12:BLDC_CAN.c    **** 
  13:BLDC_CAN.c    **** #include "main.h"
  14:BLDC_CAN.c    **** #include "BLDC_CAN.h"
  15:BLDC_CAN.c    **** #include "BLDC_FSM.h"
  16:BLDC_CAN.c    **** #include "BLDC_Drive.h"
  17:BLDC_CAN.c    **** 
  18:BLDC_CAN.c    **** extern int16_t nextPWM;
  19:BLDC_CAN.c    **** extern int32_t millidegreeTarget;
  20:BLDC_CAN.c    **** 
  21:BLDC_CAN.c    **** extern uint8_t bound_set1;
  22:BLDC_CAN.c    **** extern uint8_t bound_set2;
  23:BLDC_CAN.c    **** extern int32_t enc_lim_1;
  24:BLDC_CAN.c    **** extern int32_t enc_lim_2;
  25:BLDC_CAN.c    **** 
  26:BLDC_CAN.c    **** extern char txData[TX_DATA_SIZE];
  27:BLDC_CAN.c    **** extern uint8 address;
  28:BLDC_CAN.c    **** 
  29:BLDC_CAN.c    **** void SendEncoderData (CANPacket *packetToSend){
  28              		.loc 1 29 0
ARM GAS  C:\Users\M4rz4n\AppData\Local\Temp\ccgCe0Wa.s 			page 2


  29              		.cfi_startproc
  30              		@ args = 0, pretend = 0, frame = 0
  31              		@ frame_needed = 0, uses_anonymous_args = 0
  32              	.LVL0:
  33 0000 10B5     		push	{r4, lr}
  34              		.cfi_def_cfa_offset 8
  35              		.cfi_offset 4, -8
  36              		.cfi_offset 14, -4
  37 0002 82B0     		sub	sp, sp, #8
  38              		.cfi_def_cfa_offset 16
  39 0004 0400     		movs	r4, r0
  30:BLDC_CAN.c    ****     AssembleTelemetryReportPacket(packetToSend, DEVICE_GROUP_JETSON, DEVICE_SERIAL_JETSON, 
  31:BLDC_CAN.c    ****         PACKET_TELEMETRY_ANG_POSITION, GetPositionmDeg());
  40              		.loc 1 31 0
  41 0006 FFF7FEFF 		bl	GetPositionmDeg
  42              	.LVL1:
  30:BLDC_CAN.c    ****     AssembleTelemetryReportPacket(packetToSend, DEVICE_GROUP_JETSON, DEVICE_SERIAL_JETSON, 
  43              		.loc 1 30 0
  44 000a 0090     		str	r0, [sp]
  45 000c 0423     		movs	r3, #4
  46 000e 0122     		movs	r2, #1
  47 0010 0221     		movs	r1, #2
  48 0012 2000     		movs	r0, r4
  49 0014 FFF7FEFF 		bl	AssembleTelemetryReportPacket
  50              	.LVL2:
  32:BLDC_CAN.c    ****     SendCANPacket(packetToSend);
  51              		.loc 1 32 0
  52 0018 2000     		movs	r0, r4
  53 001a FFF7FEFF 		bl	SendCANPacket
  54              	.LVL3:
  33:BLDC_CAN.c    **** }
  55              		.loc 1 33 0
  56 001e 02B0     		add	sp, sp, #8
  57              		@ sp needed
  58              	.LVL4:
  59 0020 10BD     		pop	{r4, pc}
  60              		.cfi_endproc
  61              	.LFE35:
  62              		.size	SendEncoderData, .-SendEncoderData
  63              		.global	__aeabi_ui2d
  64              		.global	__aeabi_ddiv
  65 0022 C046     		.section	.text.NextStateFromCAN,"ax",%progbits
  66              		.align	2
  67              		.global	NextStateFromCAN
  68              		.code	16
  69              		.thumb_func
  70              		.type	NextStateFromCAN, %function
  71              	NextStateFromCAN:
  72              	.LFB36:
  34:BLDC_CAN.c    **** 
  35:BLDC_CAN.c    **** //Reads from CAN FIFO and changes the state and mode accordingly
  36:BLDC_CAN.c    **** void NextStateFromCAN(CANPacket *receivedPacket, CANPacket *packetToSend) {
  73              		.loc 1 36 0
  74              		.cfi_startproc
  75              		@ args = 0, pretend = 0, frame = 8
  76              		@ frame_needed = 0, uses_anonymous_args = 0
  77              	.LVL5:
ARM GAS  C:\Users\M4rz4n\AppData\Local\Temp\ccgCe0Wa.s 			page 3


  78 0000 F0B5     		push	{r4, r5, r6, r7, lr}
  79              		.cfi_def_cfa_offset 20
  80              		.cfi_offset 4, -20
  81              		.cfi_offset 5, -16
  82              		.cfi_offset 6, -12
  83              		.cfi_offset 7, -8
  84              		.cfi_offset 14, -4
  85 0002 85B0     		sub	sp, sp, #20
  86              		.cfi_def_cfa_offset 40
  87 0004 0400     		movs	r4, r0
  88 0006 0D00     		movs	r5, r1
  37:BLDC_CAN.c    ****     uint16_t packageID = ReadCAN(receivedPacket);
  89              		.loc 1 37 0
  90 0008 FFF7FEFF 		bl	ReadCAN
  91              	.LVL6:
  92 000c 0600     		movs	r6, r0
  93              	.LVL7:
  38:BLDC_CAN.c    ****     uint8_t motor_serial = GetDeviceSerialNumber(receivedPacket); //get which motor
  94              		.loc 1 38 0
  95 000e 2000     		movs	r0, r4
  96              	.LVL8:
  97 0010 FFF7FEFF 		bl	GetDeviceSerialNumber
  98              	.LVL9:
  39:BLDC_CAN.c    ****     uint8_t sender_DG = GetSenderDeviceGroupCode(receivedPacket);
  99              		.loc 1 39 0
 100 0014 2000     		movs	r0, r4
 101 0016 FFF7FEFF 		bl	GetSenderDeviceGroupCode
 102              	.LVL10:
 103 001a 0390     		str	r0, [sp, #12]
 104              	.LVL11:
  40:BLDC_CAN.c    ****     uint8_t sender_SN = GetSenderDeviceSerialNumber(receivedPacket);
 105              		.loc 1 40 0
 106 001c 2000     		movs	r0, r4
 107 001e FFF7FEFF 		bl	GetSenderDeviceSerialNumber
 108              	.LVL12:
 109 0022 0700     		movs	r7, r0
 110              	.LVL13:
  41:BLDC_CAN.c    ****     
  42:BLDC_CAN.c    ****     switch(packageID){
 111              		.loc 1 42 0
 112 0024 0A2E     		cmp	r6, #10
 113 0026 00D1     		bne	.LCB72
 114 0028 95E0     		b	.L4	@long jump
 115              	.LCB72:
 116 002a 0DD8     		bhi	.L5
 117 002c 042E     		cmp	r6, #4
 118 002e 78D0     		beq	.L6
 119 0030 04D8     		bhi	.L7
 120 0032 002E     		cmp	r6, #0
 121 0034 20D0     		beq	.L8
 122 0036 032E     		cmp	r6, #3
 123 0038 3FD0     		beq	.L9
 124 003a 3CE1     		b	.L3
 125              	.L7:
 126 003c 062E     		cmp	r6, #6
 127 003e 5AD0     		beq	.L10
 128 0040 4ED3     		bcc	.L11
ARM GAS  C:\Users\M4rz4n\AppData\Local\Temp\ccgCe0Wa.s 			page 4


 129 0042 072E     		cmp	r6, #7
 130 0044 62D0     		beq	.L12
 131 0046 36E1     		b	.L3
 132              	.L5:
 133 0048 102E     		cmp	r6, #16
 134 004a 00D1     		bne	.LCB98
 135 004c A9E0     		b	.L13	@long jump
 136              	.LCB98:
 137 004e 09D8     		bhi	.L14
 138 0050 0D2E     		cmp	r6, #13
 139 0052 00D1     		bne	.LCB102
 140 0054 D9E0     		b	.L15	@long jump
 141              	.LCB102:
 142 0056 0F2E     		cmp	r6, #15
 143 0058 00D1     		bne	.LCB104
 144 005a 8FE0     		b	.L16	@long jump
 145              	.LCB104:
 146 005c 0C2E     		cmp	r6, #12
 147 005e 00D0     		beq	.LCB106
 148 0060 29E1     		b	.L3	@long jump
 149              	.LCB106:
 150 0062 B1E0     		b	.L17
 151              	.L14:
 152 0064 F02E     		cmp	r6, #240
 153 0066 00D1     		bne	.LCB112
 154 0068 F2E0     		b	.L18	@long jump
 155              	.LCB112:
 156 006a F52E     		cmp	r6, #245
 157 006c 00D1     		bne	.LCB114
 158 006e FAE0     		b	.L19	@long jump
 159              	.LCB114:
 160 0070 122E     		cmp	r6, #18
 161 0072 00D0     		beq	.LCB116
 162 0074 1FE1     		b	.L3	@long jump
 163              	.LCB116:
 164 0076 D1E0     		b	.L20
 165              	.L8:
 166              	.LBB2:
  43:BLDC_CAN.c    ****         case(ID_MOTOR_UNIT_MODE_SEL):
  44:BLDC_CAN.c    ****             if(GetModeFromPacket(receivedPacket) == MOTOR_UNIT_MODE_PWM) {
 167              		.loc 1 44 0
 168 0078 2000     		movs	r0, r4
 169 007a FFF7FEFF 		bl	GetModeFromPacket
 170              	.LVL14:
 171 007e 0028     		cmp	r0, #0
 172 0080 0AD1     		bne	.L21
 173              	.LBB3:
  45:BLDC_CAN.c    ****                 set_PWM(0, 0, 0);
 174              		.loc 1 45 0
 175 0082 0022     		movs	r2, #0
 176 0084 0021     		movs	r1, #0
 177 0086 FFF7FEFF 		bl	set_PWM
 178              	.LVL15:
  46:BLDC_CAN.c    ****                 SetModeTo(MOTOR_UNIT_MODE_PWM);
 179              		.loc 1 46 0
 180 008a 0020     		movs	r0, #0
 181 008c FFF7FEFF 		bl	SetModeTo
ARM GAS  C:\Users\M4rz4n\AppData\Local\Temp\ccgCe0Wa.s 			page 5


 182              	.LVL16:
  47:BLDC_CAN.c    ****                 SetStateTo(CHECK_CAN);
 183              		.loc 1 47 0
 184 0090 0220     		movs	r0, #2
 185 0092 FFF7FEFF 		bl	SetStateTo
 186              	.LVL17:
 187              	.LBE3:
 188 0096 26E1     		b	.L2
 189              	.L21:
  48:BLDC_CAN.c    ****             }
  49:BLDC_CAN.c    ****             else if (GetModeFromPacket(receivedPacket) == MOTOR_UNIT_MODE_PID) {
 190              		.loc 1 49 0
 191 0098 2000     		movs	r0, r4
 192 009a FFF7FEFF 		bl	GetModeFromPacket
 193              	.LVL18:
 194 009e 0128     		cmp	r0, #1
 195 00a0 08D1     		bne	.L23
 196              	.LBB4:
  50:BLDC_CAN.c    ****                 InitializePID();
 197              		.loc 1 50 0
 198 00a2 FFF7FEFF 		bl	InitializePID
 199              	.LVL19:
  51:BLDC_CAN.c    ****                 SetModeTo(MOTOR_UNIT_MODE_PID);
 200              		.loc 1 51 0
 201 00a6 0120     		movs	r0, #1
 202 00a8 FFF7FEFF 		bl	SetModeTo
 203              	.LVL20:
  52:BLDC_CAN.c    ****                 SetStateTo(CHECK_CAN);
 204              		.loc 1 52 0
 205 00ac 0220     		movs	r0, #2
 206 00ae FFF7FEFF 		bl	SetStateTo
 207              	.LVL21:
 208              	.LBE4:
 209 00b2 18E1     		b	.L2
 210              	.L23:
  53:BLDC_CAN.c    ****             } else {
  54:BLDC_CAN.c    ****                 GotoUninitState();
 211              		.loc 1 54 0
 212 00b4 FFF7FEFF 		bl	GotoUninitState
 213              	.LVL22:
 214 00b8 15E1     		b	.L2
 215              	.L9:
  55:BLDC_CAN.c    ****             }
  56:BLDC_CAN.c    ****             break;
  57:BLDC_CAN.c    ****             
  58:BLDC_CAN.c    ****         case(ID_MOTOR_UNIT_PWM_DIR_SET):
  59:BLDC_CAN.c    ****             if(GetMode() == MOTOR_UNIT_MODE_PWM){
 216              		.loc 1 59 0
 217 00ba FFF7FEFF 		bl	GetMode
 218              	.LVL23:
 219 00be 0028     		cmp	r0, #0
 220 00c0 07D1     		bne	.L24
  60:BLDC_CAN.c    ****                 SetStateTo(SET_PWM);
 221              		.loc 1 60 0
 222 00c2 FFF7FEFF 		bl	SetStateTo
 223              	.LVL24:
  61:BLDC_CAN.c    ****                 nextPWM = GetPWMFromPacket(receivedPacket);
ARM GAS  C:\Users\M4rz4n\AppData\Local\Temp\ccgCe0Wa.s 			page 6


 224              		.loc 1 61 0
 225 00c6 2000     		movs	r0, r4
 226 00c8 FFF7FEFF 		bl	GetPWMFromPacket
 227              	.LVL25:
 228 00cc 874B     		ldr	r3, .L38
 229 00ce 1880     		strh	r0, [r3]
 230 00d0 09E1     		b	.L2
 231              	.L24:
  62:BLDC_CAN.c    ****             } else {
  63:BLDC_CAN.c    ****                 SetStateTo(QUEUE_ERROR);
 232              		.loc 1 63 0
 233 00d2 0320     		movs	r0, #3
 234 00d4 FFF7FEFF 		bl	SetStateTo
 235              	.LVL26:
  64:BLDC_CAN.c    ****                 DisplayErrorCode(MOTOR_ERROR_WRONG_MODE);
 236              		.loc 1 64 0
 237 00d8 0120     		movs	r0, #1
 238 00da FFF7FEFF 		bl	DisplayErrorCode
 239              	.LVL27:
 240 00de 02E1     		b	.L2
 241              	.L11:
  65:BLDC_CAN.c    ****             }
  66:BLDC_CAN.c    ****             break;
  67:BLDC_CAN.c    ****             
  68:BLDC_CAN.c    ****         case(ID_MOTOR_UNIT_PID_P_SET):
  69:BLDC_CAN.c    ****             SetkPosition(GetPFromPacket(receivedPacket));
 242              		.loc 1 69 0
 243 00e0 2000     		movs	r0, r4
 244 00e2 FFF7FEFF 		bl	GetPFromPacket
 245              	.LVL28:
 246 00e6 FFF7FEFF 		bl	SetkPosition
 247              	.LVL29:
  70:BLDC_CAN.c    ****             PositionConstIsSet();
 248              		.loc 1 70 0
 249 00ea FFF7FEFF 		bl	PositionConstIsSet
 250              	.LVL30:
  71:BLDC_CAN.c    ****             SetStateTo(CHECK_CAN);
 251              		.loc 1 71 0
 252 00ee 0220     		movs	r0, #2
 253 00f0 FFF7FEFF 		bl	SetStateTo
 254              	.LVL31:
  72:BLDC_CAN.c    ****             break;
 255              		.loc 1 72 0
 256 00f4 F7E0     		b	.L2
 257              	.L10:
  73:BLDC_CAN.c    ****         
  74:BLDC_CAN.c    ****         case(ID_MOTOR_UNIT_PID_I_SET):
  75:BLDC_CAN.c    ****             SetkIntegral(GetIFromPacket(receivedPacket));
 258              		.loc 1 75 0
 259 00f6 2000     		movs	r0, r4
 260 00f8 FFF7FEFF 		bl	GetIFromPacket
 261              	.LVL32:
 262 00fc FFF7FEFF 		bl	SetkIntegral
 263              	.LVL33:
  76:BLDC_CAN.c    ****             IntegralConstIsSet();
 264              		.loc 1 76 0
 265 0100 FFF7FEFF 		bl	IntegralConstIsSet
ARM GAS  C:\Users\M4rz4n\AppData\Local\Temp\ccgCe0Wa.s 			page 7


 266              	.LVL34:
  77:BLDC_CAN.c    ****             SetStateTo(CHECK_CAN);
 267              		.loc 1 77 0
 268 0104 0220     		movs	r0, #2
 269 0106 FFF7FEFF 		bl	SetStateTo
 270              	.LVL35:
  78:BLDC_CAN.c    ****             break;
 271              		.loc 1 78 0
 272 010a ECE0     		b	.L2
 273              	.L12:
  79:BLDC_CAN.c    ****         
  80:BLDC_CAN.c    ****         case(ID_MOTOR_UNIT_PID_D_SET):
  81:BLDC_CAN.c    ****             SetkDerivative(GetDFromPacket(receivedPacket));
 274              		.loc 1 81 0
 275 010c 2000     		movs	r0, r4
 276 010e FFF7FEFF 		bl	GetDFromPacket
 277              	.LVL36:
 278 0112 FFF7FEFF 		bl	SetkDerivative
 279              	.LVL37:
  82:BLDC_CAN.c    ****             DerivativeConstIsSet();
 280              		.loc 1 82 0
 281 0116 FFF7FEFF 		bl	DerivativeConstIsSet
 282              	.LVL38:
  83:BLDC_CAN.c    ****             SetStateTo(CHECK_CAN);
 283              		.loc 1 83 0
 284 011a 0220     		movs	r0, #2
 285 011c FFF7FEFF 		bl	SetStateTo
 286              	.LVL39:
  84:BLDC_CAN.c    ****             break;
 287              		.loc 1 84 0
 288 0120 E1E0     		b	.L2
 289              	.L6:
  85:BLDC_CAN.c    ****         
  86:BLDC_CAN.c    ****         case(ID_MOTOR_UNIT_PID_POS_TGT_SET):
  87:BLDC_CAN.c    ****             if(GetMode() == MOTOR_UNIT_MODE_PID && PIDconstsSet()) {//&& PID values set
 290              		.loc 1 87 0
 291 0122 FFF7FEFF 		bl	GetMode
 292              	.LVL40:
 293 0126 0128     		cmp	r0, #1
 294 0128 0ED1     		bne	.L25
 295              		.loc 1 87 0 is_stmt 0 discriminator 1
 296 012a FFF7FEFF 		bl	PIDconstsSet
 297              	.LVL41:
 298 012e 0028     		cmp	r0, #0
 299 0130 0AD0     		beq	.L25
 300              	.LBB5:
  88:BLDC_CAN.c    ****                 EnablePID();
 301              		.loc 1 88 0 is_stmt 1
 302 0132 FFF7FEFF 		bl	EnablePID
 303              	.LVL42:
  89:BLDC_CAN.c    ****                 millidegreeTarget = GetPIDTargetFromPacket(receivedPacket);
 304              		.loc 1 89 0
 305 0136 2000     		movs	r0, r4
 306 0138 FFF7FEFF 		bl	GetPIDTargetFromPacket
 307              	.LVL43:
 308 013c 6C4B     		ldr	r3, .L38+4
 309 013e 1860     		str	r0, [r3]
ARM GAS  C:\Users\M4rz4n\AppData\Local\Temp\ccgCe0Wa.s 			page 8


  90:BLDC_CAN.c    ****                 SetStateTo(CALC_PID);
 310              		.loc 1 90 0
 311 0140 0120     		movs	r0, #1
 312 0142 FFF7FEFF 		bl	SetStateTo
 313              	.LVL44:
 314              	.LBE5:
  87:BLDC_CAN.c    ****                 EnablePID();
 315              		.loc 1 87 0
 316 0146 CEE0     		b	.L2
 317              	.L25:
  91:BLDC_CAN.c    ****             } else {
  92:BLDC_CAN.c    ****                 SetStateTo(QUEUE_ERROR);
 318              		.loc 1 92 0
 319 0148 0320     		movs	r0, #3
 320 014a FFF7FEFF 		bl	SetStateTo
 321              	.LVL45:
  93:BLDC_CAN.c    ****                 DisplayErrorCode(MOTOR_ERROR_WRONG_MODE);
 322              		.loc 1 93 0
 323 014e 0120     		movs	r0, #1
 324 0150 FFF7FEFF 		bl	DisplayErrorCode
 325              	.LVL46:
 326 0154 C7E0     		b	.L2
 327              	.L4:
  94:BLDC_CAN.c    ****             }
  95:BLDC_CAN.c    ****             break;
  96:BLDC_CAN.c    ****          
  97:BLDC_CAN.c    ****         case(ID_MOTOR_UNIT_ENC_PPJR_SET):
  98:BLDC_CAN.c    ****             SetConversion(360.0*1000/GetEncoderPPJRFromPacket(receivedPacket));
 328              		.loc 1 98 0
 329 0156 2000     		movs	r0, r4
 330 0158 FFF7FEFF 		bl	GetEncoderPPJRFromPacket
 331              	.LVL47:
 332 015c FFF7FEFF 		bl	__aeabi_ui2d
 333              	.LVL48:
 334 0160 0200     		movs	r2, r0
 335 0162 0B00     		movs	r3, r1
 336 0164 0020     		movs	r0, #0
 337 0166 6349     		ldr	r1, .L38+8
 338 0168 FFF7FEFF 		bl	__aeabi_ddiv
 339              	.LVL49:
 340 016c FFF7FEFF 		bl	SetConversion
 341              	.LVL50:
  99:BLDC_CAN.c    ****             PPJRConstIsSet();
 342              		.loc 1 99 0
 343 0170 FFF7FEFF 		bl	PPJRConstIsSet
 344              	.LVL51:
 100:BLDC_CAN.c    ****             SetStateTo(CHECK_CAN);
 345              		.loc 1 100 0
 346 0174 0220     		movs	r0, #2
 347 0176 FFF7FEFF 		bl	SetStateTo
 348              	.LVL52:
 101:BLDC_CAN.c    ****             break;
 349              		.loc 1 101 0
 350 017a B4E0     		b	.L2
 351              	.L16:
 102:BLDC_CAN.c    ****         /*
 103:BLDC_CAN.c    ****         case(ID_MOTOR_UNIT_MAX_JNT_REV_SET):
ARM GAS  C:\Users\M4rz4n\AppData\Local\Temp\ccgCe0Wa.s 			page 9


 104:BLDC_CAN.c    ****             break;
 105:BLDC_CAN.c    ****         */
 106:BLDC_CAN.c    ****         case (ID_MOTOR_UNIT_POT_INIT_LO):
 107:BLDC_CAN.c    ****             //printf("pot init low: %0llX",(uint64_t) receivedPacket->data);
 108:BLDC_CAN.c    ****             setTickMin(GetPotADCFromPacket(receivedPacket));
 352              		.loc 1 108 0
 353 017c 2000     		movs	r0, r4
 354 017e FFF7FEFF 		bl	GetPotADCFromPacket
 355              	.LVL53:
 356 0182 FFF7FEFF 		bl	setTickMin
 357              	.LVL54:
 109:BLDC_CAN.c    ****             setmDegMin(GetPotmDegFromPacket(receivedPacket));
 358              		.loc 1 109 0
 359 0186 2000     		movs	r0, r4
 360 0188 FFF7FEFF 		bl	GetPotmDegFromPacket
 361              	.LVL55:
 362 018c FFF7FEFF 		bl	setmDegMin
 363              	.LVL56:
 110:BLDC_CAN.c    ****             UpdateConversion();
 364              		.loc 1 110 0
 365 0190 FFF7FEFF 		bl	UpdateConversion
 366              	.LVL57:
 111:BLDC_CAN.c    ****             setUsingPot(1);
 367              		.loc 1 111 0
 368 0194 0120     		movs	r0, #1
 369 0196 FFF7FEFF 		bl	setUsingPot
 370              	.LVL58:
 112:BLDC_CAN.c    ****             SetStateTo(CHECK_CAN);
 371              		.loc 1 112 0
 372 019a 0220     		movs	r0, #2
 373 019c FFF7FEFF 		bl	SetStateTo
 374              	.LVL59:
 113:BLDC_CAN.c    ****             break;
 375              		.loc 1 113 0
 376 01a0 A1E0     		b	.L2
 377              	.L13:
 114:BLDC_CAN.c    ****             
 115:BLDC_CAN.c    ****         case (ID_MOTOR_UNIT_POT_INIT_HI):
 116:BLDC_CAN.c    ****             //printf("pot init hi: %0llX",(uint64_t) receivedPacket->data);
 117:BLDC_CAN.c    ****             setTickMax(GetPotADCFromPacket(receivedPacket));
 378              		.loc 1 117 0
 379 01a2 2000     		movs	r0, r4
 380 01a4 FFF7FEFF 		bl	GetPotADCFromPacket
 381              	.LVL60:
 382 01a8 FFF7FEFF 		bl	setTickMax
 383              	.LVL61:
 118:BLDC_CAN.c    ****             setmDegMax(GetPotmDegFromPacket(receivedPacket));
 384              		.loc 1 118 0
 385 01ac 2000     		movs	r0, r4
 386 01ae FFF7FEFF 		bl	GetPotmDegFromPacket
 387              	.LVL62:
 388 01b2 FFF7FEFF 		bl	setmDegMax
 389              	.LVL63:
 119:BLDC_CAN.c    ****             UpdateConversion();
 390              		.loc 1 119 0
 391 01b6 FFF7FEFF 		bl	UpdateConversion
 392              	.LVL64:
ARM GAS  C:\Users\M4rz4n\AppData\Local\Temp\ccgCe0Wa.s 			page 10


 120:BLDC_CAN.c    ****             setUsingPot(1);
 393              		.loc 1 120 0
 394 01ba 0120     		movs	r0, #1
 395 01bc FFF7FEFF 		bl	setUsingPot
 396              	.LVL65:
 121:BLDC_CAN.c    ****             SetStateTo(CHECK_CAN);
 397              		.loc 1 121 0
 398 01c0 0220     		movs	r0, #2
 399 01c2 FFF7FEFF 		bl	SetStateTo
 400              	.LVL66:
 122:BLDC_CAN.c    ****             break;
 401              		.loc 1 122 0
 402 01c6 8EE0     		b	.L2
 403              	.L17:
 123:BLDC_CAN.c    ****         case(ID_MOTOR_UNIT_ENC_INIT):
 124:BLDC_CAN.c    ****             setUsingPot(0);
 404              		.loc 1 124 0
 405 01c8 0020     		movs	r0, #0
 406 01ca FFF7FEFF 		bl	setUsingPot
 407              	.LVL67:
 125:BLDC_CAN.c    ****             if(GetMode() == MOTOR_UNIT_MODE_PID){ //turn off and clear PID Loop if encoder is reini
 408              		.loc 1 125 0
 409 01ce FFF7FEFF 		bl	GetMode
 410              	.LVL68:
 411 01d2 0128     		cmp	r0, #1
 412 01d4 08D1     		bne	.L26
 413              	.LBB6:
 126:BLDC_CAN.c    ****                 set_PWM(0, 0, 0);
 414              		.loc 1 126 0
 415 01d6 0022     		movs	r2, #0
 416 01d8 0021     		movs	r1, #0
 417 01da 0020     		movs	r0, #0
 418 01dc FFF7FEFF 		bl	set_PWM
 419              	.LVL69:
 127:BLDC_CAN.c    ****                 ClearPIDProgress();
 420              		.loc 1 127 0
 421 01e0 FFF7FEFF 		bl	ClearPIDProgress
 422              	.LVL70:
 128:BLDC_CAN.c    ****                 DisablePID();
 423              		.loc 1 128 0
 424 01e4 FFF7FEFF 		bl	DisablePID
 425              	.LVL71:
 426              	.L26:
 427              	.LBE6:
 129:BLDC_CAN.c    ****             }
 130:BLDC_CAN.c    ****             if(GetEncoderZeroFromPacket(receivedPacket)) {
 428              		.loc 1 130 0
 429 01e8 2000     		movs	r0, r4
 430 01ea FFF7FEFF 		bl	GetEncoderZeroFromPacket
 431              	.LVL72:
 432 01ee 0028     		cmp	r0, #0
 433 01f0 02D0     		beq	.L27
 434              	.LBB7:
 131:BLDC_CAN.c    ****                 QuadDec_SetCounter(0);                        
 435              		.loc 1 131 0
 436 01f2 0020     		movs	r0, #0
 437 01f4 FFF7FEFF 		bl	QuadDec_SetCounter
ARM GAS  C:\Users\M4rz4n\AppData\Local\Temp\ccgCe0Wa.s 			page 11


 438              	.LVL73:
 439              	.L27:
 440              	.LBE7:
 132:BLDC_CAN.c    ****             }
 133:BLDC_CAN.c    ****             SetEncoderDir(GetEncoderDirectionFromPacket(receivedPacket));
 441              		.loc 1 133 0
 442 01f8 2000     		movs	r0, r4
 443 01fa FFF7FEFF 		bl	GetEncoderDirectionFromPacket
 444              	.LVL74:
 445 01fe FFF7FEFF 		bl	SetEncoderDir
 446              	.LVL75:
 134:BLDC_CAN.c    ****             SetStateTo(CHECK_CAN);
 447              		.loc 1 134 0
 448 0202 0220     		movs	r0, #2
 449 0204 FFF7FEFF 		bl	SetStateTo
 450              	.LVL76:
 135:BLDC_CAN.c    ****             break;
 451              		.loc 1 135 0
 452 0208 6DE0     		b	.L2
 453              	.L15:
 136:BLDC_CAN.c    ****         case(ID_MOTOR_UNIT_MAX_PID_PWM):
 137:BLDC_CAN.c    ****             SetMaxPIDPWM(GetMaxPIDPWMFromPacket(receivedPacket));
 454              		.loc 1 137 0
 455 020a 2000     		movs	r0, r4
 456 020c FFF7FEFF 		bl	GetMaxPIDPWMFromPacket
 457              	.LVL77:
 458 0210 FFF7FEFF 		bl	SetMaxPIDPWM
 459              	.LVL78:
 138:BLDC_CAN.c    ****             SetStateTo(CHECK_CAN);
 460              		.loc 1 138 0
 461 0214 0220     		movs	r0, #2
 462 0216 FFF7FEFF 		bl	SetStateTo
 463              	.LVL79:
 139:BLDC_CAN.c    ****             break;    
 464              		.loc 1 139 0
 465 021a 64E0     		b	.L2
 466              	.L20:
 140:BLDC_CAN.c    ****         
 141:BLDC_CAN.c    ****         case(ID_MOTOR_UNIT_SET_ENCODER_BOUND):
 142:BLDC_CAN.c    ****             if (GetLimSwNumFromPacket(receivedPacket)) { // Limit 2
 467              		.loc 1 142 0
 468 021c 2000     		movs	r0, r4
 469 021e FFF7FEFF 		bl	GetLimSwNumFromPacket
 470              	.LVL80:
 471 0222 0028     		cmp	r0, #0
 472 0224 08D0     		beq	.L28
 143:BLDC_CAN.c    ****                 bound_set2 = 1;
 473              		.loc 1 143 0
 474 0226 0122     		movs	r2, #1
 475 0228 334B     		ldr	r3, .L38+12
 476 022a 1A70     		strb	r2, [r3]
 144:BLDC_CAN.c    ****                 enc_lim_2 = GetEncoderValueFromPacket(receivedPacket);
 477              		.loc 1 144 0
 478 022c 2000     		movs	r0, r4
 479 022e FFF7FEFF 		bl	GetEncoderValueFromPacket
 480              	.LVL81:
 481 0232 324B     		ldr	r3, .L38+16
ARM GAS  C:\Users\M4rz4n\AppData\Local\Temp\ccgCe0Wa.s 			page 12


 482 0234 1860     		str	r0, [r3]
 483 0236 07E0     		b	.L29
 484              	.L28:
 145:BLDC_CAN.c    ****             } else { // Limit 1
 146:BLDC_CAN.c    ****                 bound_set1 = 1;
 485              		.loc 1 146 0
 486 0238 0122     		movs	r2, #1
 487 023a 314B     		ldr	r3, .L38+20
 488 023c 1A70     		strb	r2, [r3]
 147:BLDC_CAN.c    ****                 enc_lim_1 = GetEncoderValueFromPacket(receivedPacket);
 489              		.loc 1 147 0
 490 023e 2000     		movs	r0, r4
 491 0240 FFF7FEFF 		bl	GetEncoderValueFromPacket
 492              	.LVL82:
 493 0244 2F4B     		ldr	r3, .L38+24
 494 0246 1860     		str	r0, [r3]
 495              	.L29:
 148:BLDC_CAN.c    ****             }
 149:BLDC_CAN.c    ****             
 150:BLDC_CAN.c    ****             SetStateTo(CHECK_CAN);
 496              		.loc 1 150 0
 497 0248 0220     		movs	r0, #2
 498 024a FFF7FEFF 		bl	SetStateTo
 499              	.LVL83:
 151:BLDC_CAN.c    ****             break;
 500              		.loc 1 151 0
 501 024e 4AE0     		b	.L2
 502              	.L18:
 152:BLDC_CAN.c    ****             
 153:BLDC_CAN.c    ****         // Common Packets 
 154:BLDC_CAN.c    ****         case(ID_ESTOP):
 155:BLDC_CAN.c    ****             UART_UartPutString("\r\n\r\n\r\nSTOP\r\n\r\n\r\n");
 503              		.loc 1 155 0
 504 0250 2D48     		ldr	r0, .L38+28
 505 0252 FFF7FEFF 		bl	UART_UartPutString
 506              	.LVL84:
 156:BLDC_CAN.c    ****             set_PWM(0, 0, 0);
 507              		.loc 1 156 0
 508 0256 0022     		movs	r2, #0
 509 0258 0021     		movs	r1, #0
 510 025a 0020     		movs	r0, #0
 511 025c FFF7FEFF 		bl	set_PWM
 512              	.LVL85:
 157:BLDC_CAN.c    ****             GotoUninitState();
 513              		.loc 1 157 0
 514 0260 FFF7FEFF 		bl	GotoUninitState
 515              	.LVL86:
 158:BLDC_CAN.c    ****             break;
 516              		.loc 1 158 0
 517 0264 3FE0     		b	.L2
 518              	.L19:
 159:BLDC_CAN.c    ****         
 160:BLDC_CAN.c    ****         case(ID_TELEMETRY_PULL):
 161:BLDC_CAN.c    ****             switch (DecodeTelemetryType(receivedPacket)) {
 519              		.loc 1 161 0
 520 0266 2000     		movs	r0, r4
 521 0268 FFF7FEFF 		bl	DecodeTelemetryType
ARM GAS  C:\Users\M4rz4n\AppData\Local\Temp\ccgCe0Wa.s 			page 13


 522              	.LVL87:
 523 026c 0428     		cmp	r0, #4
 524 026e 02D0     		beq	.L31
 525 0270 0F28     		cmp	r0, #15
 526 0272 0AD0     		beq	.L32
 527 0274 13E0     		b	.L37
 528              	.L31:
 529              	.LBB8:
 162:BLDC_CAN.c    ****                 case(PACKET_TELEMETRY_ANG_POSITION):
 163:BLDC_CAN.c    ****                     AssembleTelemetryReportPacket(packetToSend, sender_DG, sender_SN, 
 164:BLDC_CAN.c    ****                                                   PACKET_TELEMETRY_ANG_POSITION, GetPositionmDeg())
 530              		.loc 1 164 0
 531 0276 FFF7FEFF 		bl	GetPositionmDeg
 532              	.LVL88:
 163:BLDC_CAN.c    ****                                                   PACKET_TELEMETRY_ANG_POSITION, GetPositionmDeg())
 533              		.loc 1 163 0
 534 027a 0090     		str	r0, [sp]
 535 027c 0423     		movs	r3, #4
 536 027e 3A00     		movs	r2, r7
 537 0280 0399     		ldr	r1, [sp, #12]
 538 0282 2800     		movs	r0, r5
 539 0284 FFF7FEFF 		bl	AssembleTelemetryReportPacket
 540              	.LVL89:
 165:BLDC_CAN.c    ****                     break;
 541              		.loc 1 165 0
 542 0288 0EE0     		b	.L33
 543              	.L32:
 166:BLDC_CAN.c    ****                 case(PACKET_TELEMETRY_ADC_RAW):
 167:BLDC_CAN.c    ****                     AssembleTelemetryReportPacket(packetToSend, sender_DG, sender_SN, 
 168:BLDC_CAN.c    ****                                                   PACKET_TELEMETRY_ADC_RAW, GetPotVal());
 544              		.loc 1 168 0
 545 028a FFF7FEFF 		bl	GetPotVal
 546              	.LVL90:
 167:BLDC_CAN.c    ****                                                   PACKET_TELEMETRY_ADC_RAW, GetPotVal());
 547              		.loc 1 167 0
 548 028e 0090     		str	r0, [sp]
 549 0290 0F23     		movs	r3, #15
 550 0292 3A00     		movs	r2, r7
 551 0294 0399     		ldr	r1, [sp, #12]
 552 0296 2800     		movs	r0, r5
 553 0298 FFF7FEFF 		bl	AssembleTelemetryReportPacket
 554              	.LVL91:
 169:BLDC_CAN.c    ****                     break;
 555              		.loc 1 169 0
 556 029c 04E0     		b	.L33
 557              	.L37:
 170:BLDC_CAN.c    ****                 default:
 171:BLDC_CAN.c    ****                     AssembleChipTypeReportPacket(packetToSend, sender_DG, sender_SN);
 558              		.loc 1 171 0
 559 029e 3A00     		movs	r2, r7
 560 02a0 0399     		ldr	r1, [sp, #12]
 561 02a2 2800     		movs	r0, r5
 562 02a4 FFF7FEFF 		bl	AssembleChipTypeReportPacket
 563              	.LVL92:
 564              	.L33:
 565              	.LBE8:
 172:BLDC_CAN.c    ****                     break;
ARM GAS  C:\Users\M4rz4n\AppData\Local\Temp\ccgCe0Wa.s 			page 14


 173:BLDC_CAN.c    ****             }
 174:BLDC_CAN.c    ****             
 175:BLDC_CAN.c    ****             SendCANPacket(packetToSend);
 566              		.loc 1 175 0
 567 02a8 2800     		movs	r0, r5
 568 02aa FFF7FEFF 		bl	SendCANPacket
 569              	.LVL93:
 176:BLDC_CAN.c    ****             SetStateTo(CHECK_CAN);
 570              		.loc 1 176 0
 571 02ae 0220     		movs	r0, #2
 572 02b0 FFF7FEFF 		bl	SetStateTo
 573              	.LVL94:
 177:BLDC_CAN.c    ****             break;
 574              		.loc 1 177 0
 575 02b4 17E0     		b	.L2
 576              	.L3:
 178:BLDC_CAN.c    ****             
 179:BLDC_CAN.c    ****             /*
 180:BLDC_CAN.c    ****         case(ID_LED_COLOR):
 181:BLDC_CAN.c    ****             break;
 182:BLDC_CAN.c    ****             */
 183:BLDC_CAN.c    ****             
 184:BLDC_CAN.c    ****         default://for 0xFF/no packets or Non recognized Packets
 185:BLDC_CAN.c    ****             
 186:BLDC_CAN.c    ****             if(GetMode() == MOTOR_UNIT_MODE_PID){ //need to check if values set;
 577              		.loc 1 186 0
 578 02b6 FFF7FEFF 		bl	GetMode
 579              	.LVL95:
 580 02ba 0128     		cmp	r0, #1
 581 02bc 02D1     		bne	.L34
 187:BLDC_CAN.c    ****                 SetStateTo(CALC_PID);
 582              		.loc 1 187 0
 583 02be FFF7FEFF 		bl	SetStateTo
 584              	.LVL96:
 585 02c2 0AE0     		b	.L35
 586              	.L34:
 188:BLDC_CAN.c    ****             } else if(GetMode() == MOTOR_UNIT_MODE_PWM){ //skips PWM state to not reset saftey time
 587              		.loc 1 188 0
 588 02c4 FFF7FEFF 		bl	GetMode
 589              	.LVL97:
 590 02c8 0028     		cmp	r0, #0
 591 02ca 03D1     		bne	.L36
 189:BLDC_CAN.c    ****                 SetStateTo(CHECK_CAN);
 592              		.loc 1 189 0
 593 02cc 0230     		adds	r0, r0, #2
 594 02ce FFF7FEFF 		bl	SetStateTo
 595              	.LVL98:
 596 02d2 02E0     		b	.L35
 597              	.L36:
 190:BLDC_CAN.c    ****             } else {
 191:BLDC_CAN.c    ****                 SetStateTo(CHECK_CAN);
 598              		.loc 1 191 0
 599 02d4 0220     		movs	r0, #2
 600 02d6 FFF7FEFF 		bl	SetStateTo
 601              	.LVL99:
 602              	.L35:
 192:BLDC_CAN.c    ****             }
ARM GAS  C:\Users\M4rz4n\AppData\Local\Temp\ccgCe0Wa.s 			page 15


 193:BLDC_CAN.c    ****             
 194:BLDC_CAN.c    ****             //recieved Packet with Non Valid ID
 195:BLDC_CAN.c    ****             if(packageID != NO_NEW_CAN_PACKET) {
 603              		.loc 1 195 0
 604 02da 0C4B     		ldr	r3, .L38+32
 605 02dc 9E42     		cmp	r6, r3
 606 02de 02D0     		beq	.L2
 196:BLDC_CAN.c    ****                 DisplayErrorCode(MOTOR_ERROR_INVALID_PACKET);
 607              		.loc 1 196 0
 608 02e0 0020     		movs	r0, #0
 609 02e2 FFF7FEFF 		bl	DisplayErrorCode
 610              	.LVL100:
 611              	.L2:
 612              	.LBE2:
 197:BLDC_CAN.c    ****             }
 198:BLDC_CAN.c    ****             break;
 199:BLDC_CAN.c    ****     }
 200:BLDC_CAN.c    **** }...
 613              		.loc 1 200 0
 614 02e6 05B0     		add	sp, sp, #20
 615              		@ sp needed
 616              	.LVL101:
 617              	.LVL102:
 618              	.LVL103:
 619              	.LVL104:
 620 02e8 F0BD     		pop	{r4, r5, r6, r7, pc}
 621              	.L39:
 622 02ea C046     		.align	2
 623              	.L38:
 624 02ec 00000000 		.word	nextPWM
 625 02f0 00000000 		.word	millidegreeTarget
 626 02f4 00F91541 		.word	1091959040
 627 02f8 00000000 		.word	bound_set2
 628 02fc 00000000 		.word	enc_lim_2
 629 0300 00000000 		.word	bound_set1
 630 0304 00000000 		.word	enc_lim_1
 631 0308 00000000 		.word	.LC6
 632 030c FFFF0000 		.word	65535
 633              		.cfi_endproc
 634              	.LFE36:
 635              		.size	NextStateFromCAN, .-NextStateFromCAN
 636              		.section	.rodata.str1.4,"aMS",%progbits,1
 637              		.align	2
 638              	.LC6:
 639 0000 0D0A0D0A 		.ascii	"\015\012\015\012\015\012STOP\015\012\015\012\015\012"
 639      0D0A5354 
 639      4F500D0A 
 639      0D0A0D0A 
 640 0010 00       		.ascii	"\000"
 641              		.text
 642              	.Letext0:
 643              		.file 2 "c:\\program files (x86)\\cypress\\psoc creator\\4.4\\psoc creator\\import\\gnu\\arm\\5.4.
 644              		.file 3 "c:\\program files (x86)\\cypress\\psoc creator\\4.4\\psoc creator\\import\\gnu\\arm\\5.4.
 645              		.file 4 "../HindsightCAN/CANPacket.h"
 646              		.file 5 "../HindsightCAN/CANCommon.h"
 647              		.file 6 "../HindsightCAN/Port.h"
 648              		.file 7 "BLDC_FSM.h"
ARM GAS  C:\Users\M4rz4n\AppData\Local\Temp\ccgCe0Wa.s 			page 16


 649              		.file 8 "../HindsightCAN/CANMotorUnit.h"
 650              		.file 9 "main.h"
 651              		.file 10 "Generated_Source\\PSoC4/UART_SPI_UART.h"