ARM GAS  C:\Users\M4rz4n\AppData\Local\Temp\ccSVGUGT.s 			page 1


   1              		.syntax unified
   2              		.cpu cortex-m0
   3              		.fpu softvfp
   4              		.eabi_attribute 20, 1
   5              		.eabi_attribute 21, 1
   6              		.eabi_attribute 23, 3
   7              		.eabi_attribute 24, 1
   8              		.eabi_attribute 25, 1
   9              		.eabi_attribute 26, 1
  10              		.eabi_attribute 30, 1
  11              		.eabi_attribute 34, 0
  12              		.eabi_attribute 18, 4
  13              		.thumb
  14              		.syntax unified
  15              		.file	"BLDC_FSM.c"
  16              		.text
  17              	.Ltext0:
  18              		.cfi_sections	.debug_frame
  19              		.section	.text.GotoUninitState,"ax",%progbits
  20              		.align	2
  21              		.global	GotoUninitState
  22              		.code	16
  23              		.thumb_func
  24              		.type	GotoUninitState, %function
  25              	GotoUninitState:
  26              	.LFB35:
  27              		.file 1 "BLDC_FSM.c"
   1:BLDC_FSM.c    **** /* ========================================
   2:BLDC_FSM.c    ****  *
   3:BLDC_FSM.c    ****  * Copyright YOUR COMPANY, THE YEAR
   4:BLDC_FSM.c    ****  * All Rights Reserved
   5:BLDC_FSM.c    ****  * UNPUBLISHED, LICENSED SOFTWARE.
   6:BLDC_FSM.c    ****  *
   7:BLDC_FSM.c    ****  * CONFIDENTIAL AND PROPRIETARY INFORMATION
   8:BLDC_FSM.c    ****  * WHICH IS THE PROPERTY OF your company.
   9:BLDC_FSM.c    ****  *
  10:BLDC_FSM.c    ****  * ========================================
  11:BLDC_FSM.c    **** */
  12:BLDC_FSM.c    **** 
  13:BLDC_FSM.c    **** /* [] END OF FILE */
  14:BLDC_FSM.c    **** #include "BLDC_FSM.h"
  15:BLDC_FSM.c    **** #include "BLDC_Drive.h"
  16:BLDC_FSM.c    **** #include "project.h"
  17:BLDC_FSM.c    **** #include "BLDC_pid.h"
  18:BLDC_FSM.c    **** 
  19:BLDC_FSM.c    **** /*drive mode
  20:BLDC_FSM.c    **** 0xFF = un-init
  21:BLDC_FSM.c    **** 0x0 = pwm
  22:BLDC_FSM.c    **** 0x1 = PID*/
  23:BLDC_FSM.c    **** uint8_t motorUnitMode   = 0xFF;
  24:BLDC_FSM.c    **** uint8_t motorUnitState  = UNINIT;
  25:BLDC_FSM.c    **** uint8_t PIDConstSetReg      = 0;
  26:BLDC_FSM.c    **** 
  27:BLDC_FSM.c    **** extern const uint32 StripLights_CLUT[ ];
  28:BLDC_FSM.c    **** 
  29:BLDC_FSM.c    **** void GotoUninitState() {
  28              		.loc 1 29 0
ARM GAS  C:\Users\M4rz4n\AppData\Local\Temp\ccSVGUGT.s 			page 2


  29              		.cfi_startproc
  30              		@ args = 0, pretend = 0, frame = 0
  31              		@ frame_needed = 0, uses_anonymous_args = 0
  32 0000 10B5     		push	{r4, lr}
  33              		.cfi_def_cfa_offset 8
  34              		.cfi_offset 4, -8
  35              		.cfi_offset 14, -4
  30:BLDC_FSM.c    ****     //halt motor
  31:BLDC_FSM.c    ****     #ifdef RGB_LED_ARRAY
  32:BLDC_FSM.c    ****     StripLights_DisplayClear(StripLights_BLACK);
  33:BLDC_FSM.c    ****     #endif
  34:BLDC_FSM.c    ****     ClearPIDProgress();
  36              		.loc 1 34 0
  37 0002 FFF7FEFF 		bl	ClearPIDProgress
  38              	.LVL0:
  35:BLDC_FSM.c    ****     motorUnitMode = 0xFF;
  39              		.loc 1 35 0
  40 0006 024B     		ldr	r3, .L2
  41 0008 FF22     		movs	r2, #255
  42 000a 1A70     		strb	r2, [r3]
  36:BLDC_FSM.c    ****     motorUnitState = UNINIT;
  43              		.loc 1 36 0
  44 000c 5A70     		strb	r2, [r3, #1]
  37:BLDC_FSM.c    **** }
  45              		.loc 1 37 0
  46              		@ sp needed
  47 000e 10BD     		pop	{r4, pc}
  48              	.L3:
  49              		.align	2
  50              	.L2:
  51 0010 00000000 		.word	.LANCHOR0
  52              		.cfi_endproc
  53              	.LFE35:
  54              		.size	GotoUninitState, .-GotoUninitState
  55              		.section	.text.SetStateTo,"ax",%progbits
  56              		.align	2
  57              		.global	SetStateTo
  58              		.code	16
  59              		.thumb_func
  60              		.type	SetStateTo, %function
  61              	SetStateTo:
  62              	.LFB36:
  38:BLDC_FSM.c    **** void SetStateTo(uint8_t state) {
  63              		.loc 1 38 0
  64              		.cfi_startproc
  65              		@ args = 0, pretend = 0, frame = 0
  66              		@ frame_needed = 0, uses_anonymous_args = 0
  67              		@ link register save eliminated.
  68              	.LVL1:
  39:BLDC_FSM.c    ****     motorUnitState = state;
  69              		.loc 1 39 0
  70 0000 014B     		ldr	r3, .L5
  71 0002 5870     		strb	r0, [r3, #1]
  40:BLDC_FSM.c    **** }
  72              		.loc 1 40 0
  73              		@ sp needed
  74 0004 7047     		bx	lr
ARM GAS  C:\Users\M4rz4n\AppData\Local\Temp\ccSVGUGT.s 			page 3


  75              	.L6:
  76 0006 C046     		.align	2
  77              	.L5:
  78 0008 00000000 		.word	.LANCHOR0
  79              		.cfi_endproc
  80              	.LFE36:
  81              		.size	SetStateTo, .-SetStateTo
  82              		.section	.text.SetModeTo,"ax",%progbits
  83              		.align	2
  84              		.global	SetModeTo
  85              		.code	16
  86              		.thumb_func
  87              		.type	SetModeTo, %function
  88              	SetModeTo:
  89              	.LFB37:
  41:BLDC_FSM.c    **** void SetModeTo(uint8_t mode) {
  90              		.loc 1 41 0
  91              		.cfi_startproc
  92              		@ args = 0, pretend = 0, frame = 0
  93              		@ frame_needed = 0, uses_anonymous_args = 0
  94              		@ link register save eliminated.
  95              	.LVL2:
  42:BLDC_FSM.c    ****     motorUnitMode = mode;
  96              		.loc 1 42 0
  97 0000 014B     		ldr	r3, .L8
  98 0002 1870     		strb	r0, [r3]
  43:BLDC_FSM.c    **** }
  99              		.loc 1 43 0
 100              		@ sp needed
 101 0004 7047     		bx	lr
 102              	.L9:
 103 0006 C046     		.align	2
 104              	.L8:
 105 0008 00000000 		.word	.LANCHOR0
 106              		.cfi_endproc
 107              	.LFE37:
 108              		.size	SetModeTo, .-SetModeTo
 109              		.section	.text.GetState,"ax",%progbits
 110              		.align	2
 111              		.global	GetState
 112              		.code	16
 113              		.thumb_func
 114              		.type	GetState, %function
 115              	GetState:
 116              	.LFB38:
  44:BLDC_FSM.c    **** uint8_t GetState(){
 117              		.loc 1 44 0
 118              		.cfi_startproc
 119              		@ args = 0, pretend = 0, frame = 0
 120              		@ frame_needed = 0, uses_anonymous_args = 0
 121              		@ link register save eliminated.
  45:BLDC_FSM.c    ****     return motorUnitState;
 122              		.loc 1 45 0
 123 0000 014B     		ldr	r3, .L11
 124 0002 5878     		ldrb	r0, [r3, #1]
  46:BLDC_FSM.c    **** }
 125              		.loc 1 46 0
ARM GAS  C:\Users\M4rz4n\AppData\Local\Temp\ccSVGUGT.s 			page 4


 126              		@ sp needed
 127 0004 7047     		bx	lr
 128              	.L12:
 129 0006 C046     		.align	2
 130              	.L11:
 131 0008 00000000 		.word	.LANCHOR0
 132              		.cfi_endproc
 133              	.LFE38:
 134              		.size	GetState, .-GetState
 135              		.section	.text.GetMode,"ax",%progbits
 136              		.align	2
 137              		.global	GetMode
 138              		.code	16
 139              		.thumb_func
 140              		.type	GetMode, %function
 141              	GetMode:
 142              	.LFB39:
  47:BLDC_FSM.c    **** uint8_t GetMode(){
 143              		.loc 1 47 0
 144              		.cfi_startproc
 145              		@ args = 0, pretend = 0, frame = 0
 146              		@ frame_needed = 0, uses_anonymous_args = 0
 147              		@ link register save eliminated.
  48:BLDC_FSM.c    ****     return motorUnitMode;
 148              		.loc 1 48 0
 149 0000 014B     		ldr	r3, .L14
 150 0002 1878     		ldrb	r0, [r3]
  49:BLDC_FSM.c    **** }
 151              		.loc 1 49 0
 152              		@ sp needed
 153 0004 7047     		bx	lr
 154              	.L15:
 155 0006 C046     		.align	2
 156              	.L14:
 157 0008 00000000 		.word	.LANCHOR0
 158              		.cfi_endproc
 159              	.LFE39:
 160              		.size	GetMode, .-GetMode
 161              		.section	.text.PositionConstIsSet,"ax",%progbits
 162              		.align	2
 163              		.global	PositionConstIsSet
 164              		.code	16
 165              		.thumb_func
 166              		.type	PositionConstIsSet, %function
 167              	PositionConstIsSet:
 168              	.LFB40:
  50:BLDC_FSM.c    **** void PositionConstIsSet() {
 169              		.loc 1 50 0
 170              		.cfi_startproc
 171              		@ args = 0, pretend = 0, frame = 0
 172              		@ frame_needed = 0, uses_anonymous_args = 0
 173              		@ link register save eliminated.
  51:BLDC_FSM.c    ****     PIDConstSetReg |= 0b100;
 174              		.loc 1 51 0
 175 0000 024A     		ldr	r2, .L17
 176 0002 1178     		ldrb	r1, [r2]
 177 0004 0423     		movs	r3, #4
ARM GAS  C:\Users\M4rz4n\AppData\Local\Temp\ccSVGUGT.s 			page 5


 178 0006 0B43     		orrs	r3, r1
 179 0008 1370     		strb	r3, [r2]
  52:BLDC_FSM.c    **** }
 180              		.loc 1 52 0
 181              		@ sp needed
 182 000a 7047     		bx	lr
 183              	.L18:
 184              		.align	2
 185              	.L17:
 186 000c 00000000 		.word	.LANCHOR1
 187              		.cfi_endproc
 188              	.LFE40:
 189              		.size	PositionConstIsSet, .-PositionConstIsSet
 190              		.section	.text.IntegralConstIsSet,"ax",%progbits
 191              		.align	2
 192              		.global	IntegralConstIsSet
 193              		.code	16
 194              		.thumb_func
 195              		.type	IntegralConstIsSet, %function
 196              	IntegralConstIsSet:
 197              	.LFB41:
  53:BLDC_FSM.c    **** 
  54:BLDC_FSM.c    **** void IntegralConstIsSet(){
 198              		.loc 1 54 0
 199              		.cfi_startproc
 200              		@ args = 0, pretend = 0, frame = 0
 201              		@ frame_needed = 0, uses_anonymous_args = 0
 202              		@ link register save eliminated.
  55:BLDC_FSM.c    ****     PIDConstSetReg |= 0b10;
 203              		.loc 1 55 0
 204 0000 024A     		ldr	r2, .L20
 205 0002 1178     		ldrb	r1, [r2]
 206 0004 0223     		movs	r3, #2
 207 0006 0B43     		orrs	r3, r1
 208 0008 1370     		strb	r3, [r2]
  56:BLDC_FSM.c    **** }
 209              		.loc 1 56 0
 210              		@ sp needed
 211 000a 7047     		bx	lr
 212              	.L21:
 213              		.align	2
 214              	.L20:
 215 000c 00000000 		.word	.LANCHOR1
 216              		.cfi_endproc
 217              	.LFE41:
 218              		.size	IntegralConstIsSet, .-IntegralConstIsSet
 219              		.section	.text.DerivativeConstIsSet,"ax",%progbits
 220              		.align	2
 221              		.global	DerivativeConstIsSet
 222              		.code	16
 223              		.thumb_func
 224              		.type	DerivativeConstIsSet, %function
 225              	DerivativeConstIsSet:
 226              	.LFB42:
  57:BLDC_FSM.c    **** 
  58:BLDC_FSM.c    **** void DerivativeConstIsSet(){
 227              		.loc 1 58 0
ARM GAS  C:\Users\M4rz4n\AppData\Local\Temp\ccSVGUGT.s 			page 6


 228              		.cfi_startproc
 229              		@ args = 0, pretend = 0, frame = 0
 230              		@ frame_needed = 0, uses_anonymous_args = 0
 231              		@ link register save eliminated.
  59:BLDC_FSM.c    ****     PIDConstSetReg |= 0b1;
 232              		.loc 1 59 0
 233 0000 024A     		ldr	r2, .L23
 234 0002 1178     		ldrb	r1, [r2]
 235 0004 0123     		movs	r3, #1
 236 0006 0B43     		orrs	r3, r1
 237 0008 1370     		strb	r3, [r2]
  60:BLDC_FSM.c    **** }
 238              		.loc 1 60 0
 239              		@ sp needed
 240 000a 7047     		bx	lr
 241              	.L24:
 242              		.align	2
 243              	.L23:
 244 000c 00000000 		.word	.LANCHOR1
 245              		.cfi_endproc
 246              	.LFE42:
 247              		.size	DerivativeConstIsSet, .-DerivativeConstIsSet
 248              		.section	.text.PPJRConstIsSet,"ax",%progbits
 249              		.align	2
 250              		.global	PPJRConstIsSet
 251              		.code	16
 252              		.thumb_func
 253              		.type	PPJRConstIsSet, %function
 254              	PPJRConstIsSet:
 255              	.LFB43:
  61:BLDC_FSM.c    **** 
  62:BLDC_FSM.c    **** void PPJRConstIsSet() {
 256              		.loc 1 62 0
 257              		.cfi_startproc
 258              		@ args = 0, pretend = 0, frame = 0
 259              		@ frame_needed = 0, uses_anonymous_args = 0
 260              		@ link register save eliminated.
  63:BLDC_FSM.c    ****     PIDConstSetReg |= 0b1000;
 261              		.loc 1 63 0
 262 0000 024A     		ldr	r2, .L26
 263 0002 1178     		ldrb	r1, [r2]
 264 0004 0823     		movs	r3, #8
 265 0006 0B43     		orrs	r3, r1
 266 0008 1370     		strb	r3, [r2]
  64:BLDC_FSM.c    **** }
 267              		.loc 1 64 0
 268              		@ sp needed
 269 000a 7047     		bx	lr
 270              	.L27:
 271              		.align	2
 272              	.L26:
 273 000c 00000000 		.word	.LANCHOR1
 274              		.cfi_endproc
 275              	.LFE43:
 276              		.size	PPJRConstIsSet, .-PPJRConstIsSet
 277              		.section	.text.MaxJointRevIsSet,"ax",%progbits
 278              		.align	2
ARM GAS  C:\Users\M4rz4n\AppData\Local\Temp\ccSVGUGT.s 			page 7


 279              		.global	MaxJointRevIsSet
 280              		.code	16
 281              		.thumb_func
 282              		.type	MaxJointRevIsSet, %function
 283              	MaxJointRevIsSet:
 284              	.LFB44:
  65:BLDC_FSM.c    **** 
  66:BLDC_FSM.c    **** void MaxJointRevIsSet(){
 285              		.loc 1 66 0
 286              		.cfi_startproc
 287              		@ args = 0, pretend = 0, frame = 0
 288              		@ frame_needed = 0, uses_anonymous_args = 0
 289              		@ link register save eliminated.
  67:BLDC_FSM.c    **** }
 290              		.loc 1 67 0
 291              		@ sp needed
 292 0000 7047     		bx	lr
 293              		.cfi_endproc
 294              	.LFE44:
 295              		.size	MaxJointRevIsSet, .-MaxJointRevIsSet
 296 0002 C046     		.section	.text.PIDconstsSet,"ax",%progbits
 297              		.align	2
 298              		.global	PIDconstsSet
 299              		.code	16
 300              		.thumb_func
 301              		.type	PIDconstsSet, %function
 302              	PIDconstsSet:
 303              	.LFB45:
  68:BLDC_FSM.c    **** 
  69:BLDC_FSM.c    **** //return 1 if all PID const are set. Return 0 if not
  70:BLDC_FSM.c    **** uint8_t PIDconstsSet(){
 304              		.loc 1 70 0
 305              		.cfi_startproc
 306              		@ args = 0, pretend = 0, frame = 0
 307              		@ frame_needed = 0, uses_anonymous_args = 0
 308              		@ link register save eliminated.
  71:BLDC_FSM.c    ****     return PIDConstSetReg == 0b1111; 
 309              		.loc 1 71 0
 310 0000 034B     		ldr	r3, .L30
 311 0002 1878     		ldrb	r0, [r3]
 312 0004 0F38     		subs	r0, r0, #15
 313 0006 4342     		rsbs	r3, r0, #0
 314 0008 5841     		adcs	r0, r0, r3
 315 000a C0B2     		uxtb	r0, r0
  72:BLDC_FSM.c    **** }
 316              		.loc 1 72 0
 317              		@ sp needed
 318 000c 7047     		bx	lr
 319              	.L31:
 320 000e C046     		.align	2
 321              	.L30:
 322 0010 00000000 		.word	.LANCHOR1
 323              		.cfi_endproc
 324              	.LFE45:
 325              		.size	PIDconstsSet, .-PIDconstsSet
 326              		.section	.text.ClearPIDconst,"ax",%progbits
 327              		.align	2
ARM GAS  C:\Users\M4rz4n\AppData\Local\Temp\ccSVGUGT.s 			page 8


 328              		.global	ClearPIDconst
 329              		.code	16
 330              		.thumb_func
 331              		.type	ClearPIDconst, %function
 332              	ClearPIDconst:
 333              	.LFB46:
  73:BLDC_FSM.c    **** 
  74:BLDC_FSM.c    **** void ClearPIDconst() {
 334              		.loc 1 74 0
 335              		.cfi_startproc
 336              		@ args = 0, pretend = 0, frame = 0
 337              		@ frame_needed = 0, uses_anonymous_args = 0
 338              		@ link register save eliminated.
  75:BLDC_FSM.c    ****     PIDConstSetReg = 0;
 339              		.loc 1 75 0
 340 0000 0022     		movs	r2, #0
 341 0002 014B     		ldr	r3, .L33
 342 0004 1A70     		strb	r2, [r3]
  76:BLDC_FSM.c    **** }...
 343              		.loc 1 76 0
 344              		@ sp needed
 345 0006 7047     		bx	lr
 346              	.L34:
 347              		.align	2
 348              	.L33:
 349 0008 00000000 		.word	.LANCHOR1
 350              		.cfi_endproc
 351              	.LFE46:
 352              		.size	ClearPIDconst, .-ClearPIDconst
 353              		.global	PIDConstSetReg
 354              		.global	motorUnitState
 355              		.global	motorUnitMode
 356              		.data
 357              		.set	.LANCHOR0,. + 0
 358              		.type	motorUnitMode, %object
 359              		.size	motorUnitMode, 1
 360              	motorUnitMode:
 361 0000 FF       		.byte	-1
 362              		.type	motorUnitState, %object
 363              		.size	motorUnitState, 1
 364              	motorUnitState:
 365 0001 FF       		.byte	-1
 366              		.bss
 367              		.set	.LANCHOR1,. + 0
 368              		.type	PIDConstSetReg, %object
 369              		.size	PIDConstSetReg, 1
 370              	PIDConstSetReg:
 371 0000 00       		.space	1
 372              		.text
 373              	.Letext0:
 374              		.file 2 "c:\\program files (x86)\\cypress\\psoc creator\\4.4\\psoc creator\\import\\gnu\\arm\\5.4.
 375              		.file 3 "c:\\program files (x86)\\cypress\\psoc creator\\4.4\\psoc creator\\import\\gnu\\arm\\5.4.
 376              		.file 4 "BLDC_pid.h"