ARM GAS  C:\Users\casey\AppData\Local\Temp\ccnEz6na.s 			page 1


   1              		.syntax unified
   2              		.cpu cortex-m0
   3              		.fpu softvfp
   4              		.eabi_attribute 20, 1
   5              		.eabi_attribute 21, 1
   6              		.eabi_attribute 23, 3
   7              		.eabi_attribute 24, 1
   8              		.eabi_attribute 25, 1
   9              		.eabi_attribute 26, 1
  10              		.eabi_attribute 30, 1
  11              		.eabi_attribute 34, 0
  12              		.eabi_attribute 18, 4
  13              		.thumb
  14              		.syntax unified
  15              		.file	"BLDC_Drive.c"
  16              		.text
  17              	.Ltext0:
  18              		.cfi_sections	.debug_frame
  19              		.section	.text.commutateMotor,"ax",%progbits
  20              		.align	2
  21              		.global	commutateMotor
  22              		.code	16
  23              		.thumb_func
  24              		.type	commutateMotor, %function
  25              	commutateMotor:
  26              	.LFB35:
  27              		.file 1 "BLDC_Drive.c"
   1:BLDC_Drive.c  **** /*
   2:BLDC_Drive.c  **** 
   3:BLDC_Drive.c  ****     Rotor FSM:
   4:BLDC_Drive.c  ****         - Phase shifting logic
   5:BLDC_Drive.c  ****         
   6:BLDC_Drive.c  **** */
   7:BLDC_Drive.c  **** 
   8:BLDC_Drive.c  **** // -------------------------------------------------------------------------WE ARE NOT USING PWM
   9:BLDC_Drive.c  **** #include <project.h>
  10:BLDC_Drive.c  **** #include <stdio.h>
  11:BLDC_Drive.c  **** #include "main.h"
  12:BLDC_Drive.c  **** #include <stdint.h>
  13:BLDC_Drive.c  **** #include "BLDC_Drive.h"
  14:BLDC_Drive.c  **** #include <project.h>
  15:BLDC_Drive.c  **** 
  16:BLDC_Drive.c  **** uint8_t invalidate = 0;
  17:BLDC_Drive.c  **** extern char txData[TX_DATA_SIZE];
  18:BLDC_Drive.c  **** 
  19:BLDC_Drive.c  **** int32_t currentSpeed = 0;
  20:BLDC_Drive.c  **** int8_t currentDir = 0;
  21:BLDC_Drive.c  **** 
  22:BLDC_Drive.c  **** #define MAX_RPM 1000
  23:BLDC_Drive.c  **** 
  24:BLDC_Drive.c  **** // Timer
  25:BLDC_Drive.c  **** float delay_ms;
  26:BLDC_Drive.c  **** 
  27:BLDC_Drive.c  **** void commutateMotor(uint8_t hallState) {
  28              		.loc 1 27 0
  29              		.cfi_startproc
  30              		@ args = 0, pretend = 0, frame = 0
ARM GAS  C:\Users\casey\AppData\Local\Temp\ccnEz6na.s 			page 2


  31              		@ frame_needed = 0, uses_anonymous_args = 0
  32              		@ link register save eliminated.
  33              	.LVL0:
  28:BLDC_Drive.c  ****     // determine the motor phase to energize based on the hall state
  29:BLDC_Drive.c  ****         
  30:BLDC_Drive.c  ****         // TODO: implement th appropriate logic to switch the motor phases
  31:BLDC_Drive.c  **** }
  34              		.loc 1 31 0
  35              		@ sp needed
  36 0000 7047     		bx	lr
  37              		.cfi_endproc
  38              	.LFE35:
  39              		.size	commutateMotor, .-commutateMotor
  40              		.global	__aeabi_i2f
  41              		.global	__aeabi_fdiv
  42 0002 C046     		.section	.text.set_speed,"ax",%progbits
  43              		.align	2
  44              		.global	set_speed
  45              		.code	16
  46              		.thumb_func
  47              		.type	set_speed, %function
  48              	set_speed:
  49              	.LFB36:
  32:BLDC_Drive.c  **** 
  33:BLDC_Drive.c  **** // -32768 <= speed < 32768
  34:BLDC_Drive.c  **** void set_speed(int16_t speed, uint8_t disable_limit, uint8 limitSW) {
  50              		.loc 1 34 0
  51              		.cfi_startproc
  52              		@ args = 0, pretend = 0, frame = 0
  53              		@ frame_needed = 0, uses_anonymous_args = 0
  54              	.LVL1:
  55 0000 10B5     		push	{r4, lr}
  56              		.cfi_def_cfa_offset 8
  57              		.cfi_offset 4, -8
  58              		.cfi_offset 14, -4
  35:BLDC_Drive.c  ****     #ifdef PRINT_PWM_COMMAND
  36:BLDC_Drive.c  ****     sprintf(txData, "PWM:%d disable_limit: %d\r\n",compare,disable_limit);
  37:BLDC_Drive.c  ****     UART_UartPutString(txData); 
  38:BLDC_Drive.c  ****     #endif
  39:BLDC_Drive.c  ****     
  40:BLDC_Drive.c  ****     invalidate = 0;
  59              		.loc 1 40 0
  60 0002 0024     		movs	r4, #0
  61 0004 174B     		ldr	r3, .L10
  62 0006 1C70     		strb	r4, [r3]
  41:BLDC_Drive.c  ****     if (speed < 0 && (!(limitSW & 0b10) || disable_limit) ) { // check if speed is negative, if not
  63              		.loc 1 41 0
  64 0008 0028     		cmp	r0, #0
  65 000a 09DA     		bge	.L3
  66              		.loc 1 41 0 is_stmt 0 discriminator 1
  67 000c 9307     		lsls	r3, r2, #30
  68 000e 01D5     		bpl	.L4
  69              		.loc 1 41 0 discriminator 2
  70 0010 0029     		cmp	r1, #0
  71 0012 05D0     		beq	.L3
  72              	.L4:
  42:BLDC_Drive.c  ****         currentDir = 0;
ARM GAS  C:\Users\casey\AppData\Local\Temp\ccnEz6na.s 			page 3


  73              		.loc 1 42 0 is_stmt 1
  74 0014 134B     		ldr	r3, .L10
  75 0016 0022     		movs	r2, #0
  76              	.LVL2:
  77 0018 5A70     		strb	r2, [r3, #1]
  43:BLDC_Drive.c  ****         currentSpeed = -speed;
  78              		.loc 1 43 0
  79 001a 4042     		rsbs	r0, r0, #0
  80              	.LVL3:
  81 001c 5860     		str	r0, [r3, #4]
  82 001e 0DE0     		b	.L5
  83              	.LVL4:
  84              	.L3:
  44:BLDC_Drive.c  ****     } else if (speed > 0 && (!(limitSW & 0b01) || disable_limit) ){ // check if speed is positive, 
  85              		.loc 1 44 0
  86 0020 0028     		cmp	r0, #0
  87 0022 08DD     		ble	.L6
  88              		.loc 1 44 0 is_stmt 0 discriminator 1
  89 0024 D307     		lsls	r3, r2, #31
  90 0026 01D5     		bpl	.L7
  91              		.loc 1 44 0 discriminator 2
  92 0028 0029     		cmp	r1, #0
  93 002a 04D0     		beq	.L6
  94              	.L7:
  45:BLDC_Drive.c  ****         currentDir = 1;
  95              		.loc 1 45 0 is_stmt 1
  96 002c 0D4B     		ldr	r3, .L10
  97 002e 0122     		movs	r2, #1
  98              	.LVL5:
  99 0030 5A70     		strb	r2, [r3, #1]
  46:BLDC_Drive.c  ****         currentSpeed = speed;
 100              		.loc 1 46 0
 101 0032 5860     		str	r0, [r3, #4]
 102 0034 02E0     		b	.L5
 103              	.LVL6:
 104              	.L6:
  47:BLDC_Drive.c  ****     } else { // set speed = 0; (special case
  48:BLDC_Drive.c  ****         currentSpeed = 0;
 105              		.loc 1 48 0
 106 0036 0022     		movs	r2, #0
 107              	.LVL7:
 108 0038 0A4B     		ldr	r3, .L10
 109 003a 5A60     		str	r2, [r3, #4]
 110              	.LVL8:
 111              	.L5:
  49:BLDC_Drive.c  ****     }
  50:BLDC_Drive.c  ****     
  51:BLDC_Drive.c  ****     if (currentSpeed != 0) {
 112              		.loc 1 51 0
 113 003c 094B     		ldr	r3, .L10
 114 003e 5868     		ldr	r0, [r3, #4]
 115 0040 0028     		cmp	r0, #0
 116 0042 0BD0     		beq	.L8
  52:BLDC_Drive.c  ****         delay_ms = (float)(1 << 15)*10000/currentSpeed/MAX_RPM;
 117              		.loc 1 52 0
 118 0044 FFF7FEFF 		bl	__aeabi_i2f
 119              	.LVL9:
ARM GAS  C:\Users\casey\AppData\Local\Temp\ccnEz6na.s 			page 4


 120 0048 011C     		adds	r1, r0, #0
 121 004a 0748     		ldr	r0, .L10+4
 122 004c FFF7FEFF 		bl	__aeabi_fdiv
 123              	.LVL10:
 124 0050 0649     		ldr	r1, .L10+8
 125 0052 FFF7FEFF 		bl	__aeabi_fdiv
 126              	.LVL11:
 127 0056 064B     		ldr	r3, .L10+12
 128 0058 1860     		str	r0, [r3]
 129 005a 02E0     		b	.L2
 130              	.LVL12:
 131              	.L8:
  53:BLDC_Drive.c  ****     }
  54:BLDC_Drive.c  ****     else {
  55:BLDC_Drive.c  ****         delay_ms = 0;
 132              		.loc 1 55 0
 133 005c 0022     		movs	r2, #0
 134 005e 044B     		ldr	r3, .L10+12
 135 0060 1A60     		str	r2, [r3]
 136              	.LVL13:
 137              	.L2:
  56:BLDC_Drive.c  ****         // stop motor (stop state machine)
  57:BLDC_Drive.c  ****         
  58:BLDC_Drive.c  ****     }
  59:BLDC_Drive.c  **** }
 138              		.loc 1 59 0
 139              		@ sp needed
 140 0062 10BD     		pop	{r4, pc}
 141              	.L11:
 142              		.align	2
 143              	.L10:
 144 0064 00000000 		.word	.LANCHOR0
 145 0068 00409C4D 		.word	1302085632
 146 006c 00007A44 		.word	1148846080
 147 0070 00000000 		.word	delay_ms
 148              		.cfi_endproc
 149              	.LFE36:
 150              		.size	set_speed, .-set_speed
 151              		.section	.text.GetCurrentSpeed,"ax",%progbits
 152              		.align	2
 153              		.global	GetCurrentSpeed
 154              		.code	16
 155              		.thumb_func
 156              		.type	GetCurrentSpeed, %function
 157              	GetCurrentSpeed:
 158              	.LFB37:
  60:BLDC_Drive.c  **** 
  61:BLDC_Drive.c  **** int16_t GetCurrentSpeed() {
 159              		.loc 1 61 0
 160              		.cfi_startproc
 161              		@ args = 0, pretend = 0, frame = 0
 162              		@ frame_needed = 0, uses_anonymous_args = 0
 163              		@ link register save eliminated.
  62:BLDC_Drive.c  ****     return currentSpeed;
 164              		.loc 1 62 0
 165 0000 014B     		ldr	r3, .L13
 166 0002 0420     		movs	r0, #4
ARM GAS  C:\Users\casey\AppData\Local\Temp\ccnEz6na.s 			page 5


 167 0004 185E     		ldrsh	r0, [r3, r0]
  63:BLDC_Drive.c  **** }
 168              		.loc 1 63 0
 169              		@ sp needed
 170 0006 7047     		bx	lr
 171              	.L14:
 172              		.align	2
 173              	.L13:
 174 0008 00000000 		.word	.LANCHOR0
 175              		.cfi_endproc
 176              	.LFE37:
 177              		.size	GetCurrentSpeed, .-GetCurrentSpeed
 178              		.section	.text.readHallState,"ax",%progbits
 179              		.align	2
 180              		.global	readHallState
 181              		.code	16
 182              		.thumb_func
 183              		.type	readHallState, %function
 184              	readHallState:
 185              	.LFB38:
  64:BLDC_Drive.c  **** 
  65:BLDC_Drive.c  **** struct CoilState coilState = {0,0,0,0,0,0};
  66:BLDC_Drive.c  **** struct HallState hallState = {0,0,0};
  67:BLDC_Drive.c  **** 
  68:BLDC_Drive.c  **** // FSM changing through states
  69:BLDC_Drive.c  **** // "--state = X" means "don't-care"
  70:BLDC_Drive.c  **** // Read the states
  71:BLDC_Drive.c  **** 
  72:BLDC_Drive.c  **** // turn this into a long case statement???
  73:BLDC_Drive.c  **** 
  74:BLDC_Drive.c  **** // add a method that stops this finite state machine
  75:BLDC_Drive.c  **** 
  76:BLDC_Drive.c  **** 
  77:BLDC_Drive.c  **** void readHallState() {
 186              		.loc 1 77 0
 187              		.cfi_startproc
 188              		@ args = 0, pretend = 0, frame = 0
 189              		@ frame_needed = 0, uses_anonymous_args = 0
 190 0000 F8B5     		push	{r3, r4, r5, r6, r7, lr}
 191              		.cfi_def_cfa_offset 24
 192              		.cfi_offset 3, -24
 193              		.cfi_offset 4, -20
 194              		.cfi_offset 5, -16
 195              		.cfi_offset 6, -12
 196              		.cfi_offset 7, -8
 197              		.cfi_offset 14, -4
 198 0002 4F46     		mov	r7, r9
 199 0004 4646     		mov	r6, r8
 200 0006 C0B4     		push	{r6, r7}
 201              		.cfi_def_cfa_offset 32
 202              		.cfi_offset 8, -32
 203              		.cfi_offset 9, -28
  78:BLDC_Drive.c  ****     hallState.A = HALL1_Read();
 204              		.loc 1 78 0
 205 0008 FFF7FEFF 		bl	HALL1_Read
 206              	.LVL14:
 207 000c 3D4C     		ldr	r4, .L16
ARM GAS  C:\Users\casey\AppData\Local\Temp\ccnEz6na.s 			page 6


 208 000e 0127     		movs	r7, #1
 209 0010 0125     		movs	r5, #1
 210 0012 2840     		ands	r0, r5
 211 0014 237A     		ldrb	r3, [r4, #8]
 212 0016 BB43     		bics	r3, r7
 213 0018 1843     		orrs	r0, r3
 214 001a 2072     		strb	r0, [r4, #8]
  79:BLDC_Drive.c  ****     hallState.B = HALL2_Read();
 215              		.loc 1 79 0
 216 001c FFF7FEFF 		bl	HALL2_Read
 217              	.LVL15:
 218 0020 2840     		ands	r0, r5
 219 0022 4300     		lsls	r3, r0, #1
 220 0024 207A     		ldrb	r0, [r4, #8]
 221 0026 0226     		movs	r6, #2
 222 0028 B043     		bics	r0, r6
 223 002a 1843     		orrs	r0, r3
 224 002c 2072     		strb	r0, [r4, #8]
  80:BLDC_Drive.c  ****     hallState.C = HALL3_Read();
 225              		.loc 1 80 0
 226 002e FFF7FEFF 		bl	HALL3_Read
 227              	.LVL16:
 228 0032 0200     		movs	r2, r0
 229 0034 2A40     		ands	r2, r5
 230 0036 9000     		lsls	r0, r2, #2
 231 0038 227A     		ldrb	r2, [r4, #8]
 232 003a 0423     		movs	r3, #4
 233 003c 9946     		mov	r9, r3
 234 003e 9A43     		bics	r2, r3
 235 0040 0243     		orrs	r2, r0
 236 0042 2272     		strb	r2, [r4, #8]
  81:BLDC_Drive.c  ****     
  82:BLDC_Drive.c  ****     coilState.UH = !hallState.B && hallState.C;
 237              		.loc 1 82 0
 238 0044 0233     		adds	r3, r3, #2
 239 0046 1340     		ands	r3, r2
 240 0048 181F     		subs	r0, r3, #4
 241 004a 4142     		rsbs	r1, r0, #0
 242 004c 4141     		adcs	r1, r1, r0
 243 004e C8B2     		uxtb	r0, r1
 244 0050 217B     		ldrb	r1, [r4, #12]
 245 0052 B943     		bics	r1, r7
 246 0054 0F00     		movs	r7, r1
  83:BLDC_Drive.c  **** 	coilState.UL = !hallState.C && hallState.B;
 247              		.loc 1 83 0
 248 0056 023B     		subs	r3, r3, #2
 249 0058 5942     		rsbs	r1, r3, #0
 250 005a 5941     		adcs	r1, r1, r3
 251 005c CBB2     		uxtb	r3, r1
 252 005e 2B40     		ands	r3, r5
 253 0060 5B00     		lsls	r3, r3, #1
 254 0062 9C46     		mov	ip, r3
 255 0064 3B00     		movs	r3, r7
 256 0066 0343     		orrs	r3, r0
 257 0068 B343     		bics	r3, r6
 258 006a 1E00     		movs	r6, r3
  84:BLDC_Drive.c  **** 	coilState.VH = !hallState.C && hallState.A;
ARM GAS  C:\Users\casey\AppData\Local\Temp\ccnEz6na.s 			page 7


 259              		.loc 1 84 0
 260 006c 0523     		movs	r3, #5
 261 006e 1340     		ands	r3, r2
 262 0070 5F1E     		subs	r7, r3, #1
 263 0072 7942     		rsbs	r1, r7, #0
 264 0074 7941     		adcs	r1, r1, r7
 265 0076 CFB2     		uxtb	r7, r1
 266 0078 2F40     		ands	r7, r5
 267 007a BF00     		lsls	r7, r7, #2
 268 007c 6146     		mov	r1, ip
 269 007e 0E43     		orrs	r6, r1
 270 0080 4946     		mov	r1, r9
 271 0082 8E43     		bics	r6, r1
  85:BLDC_Drive.c  **** 	coilState.VL = !hallState.A && hallState.C;
 272              		.loc 1 85 0
 273 0084 191F     		subs	r1, r3, #4
 274 0086 4B42     		rsbs	r3, r1, #0
 275 0088 5941     		adcs	r1, r1, r3
 276 008a C9B2     		uxtb	r1, r1
 277 008c 2940     		ands	r1, r5
 278 008e CB00     		lsls	r3, r1, #3
 279 0090 3100     		movs	r1, r6
 280 0092 3943     		orrs	r1, r7
 281 0094 0826     		movs	r6, #8
 282 0096 B143     		bics	r1, r6
  86:BLDC_Drive.c  **** 	coilState.WH = !hallState.A && hallState.B;
 283              		.loc 1 86 0
 284 0098 053E     		subs	r6, r6, #5
 285 009a 3240     		ands	r2, r6
 286 009c 961E     		subs	r6, r2, #2
 287 009e 7742     		rsbs	r7, r6, #0
 288 00a0 7E41     		adcs	r6, r6, r7
 289 00a2 F6B2     		uxtb	r6, r6
 290 00a4 2E40     		ands	r6, r5
 291 00a6 3601     		lsls	r6, r6, #4
 292 00a8 1943     		orrs	r1, r3
 293 00aa 1023     		movs	r3, #16
 294 00ac 9943     		bics	r1, r3
  87:BLDC_Drive.c  **** 	coilState.WL = !hallState.B && hallState.A;
 295              		.loc 1 87 0
 296 00ae 013A     		subs	r2, r2, #1
 297 00b0 5342     		rsbs	r3, r2, #0
 298 00b2 5341     		adcs	r3, r3, r2
 299 00b4 DAB2     		uxtb	r2, r3
 300 00b6 2A40     		ands	r2, r5
 301 00b8 5301     		lsls	r3, r2, #5
 302 00ba 0A00     		movs	r2, r1
 303 00bc 3243     		orrs	r2, r6
 304 00be 2021     		movs	r1, #32
 305 00c0 8A43     		bics	r2, r1
 306 00c2 1A43     		orrs	r2, r3
 307 00c4 2273     		strb	r2, [r4, #12]
  88:BLDC_Drive.c  ****     
  89:BLDC_Drive.c  ****     // write registers in UVW
  90:BLDC_Drive.c  ****     UH_Write(coilState.UH);
 308              		.loc 1 90 0
 309 00c6 FFF7FEFF 		bl	UH_Write
ARM GAS  C:\Users\casey\AppData\Local\Temp\ccnEz6na.s 			page 8


 310              	.LVL17:
  91:BLDC_Drive.c  ****     UL_Write(coilState.UL);
 311              		.loc 1 91 0
 312 00ca 207B     		ldrb	r0, [r4, #12]
 313 00cc 8007     		lsls	r0, r0, #30
 314 00ce C00F     		lsrs	r0, r0, #31
 315 00d0 FFF7FEFF 		bl	UL_Write
 316              	.LVL18:
  92:BLDC_Drive.c  ****     VH_Write(coilState.VH);
 317              		.loc 1 92 0
 318 00d4 207B     		ldrb	r0, [r4, #12]
 319 00d6 4007     		lsls	r0, r0, #29
 320 00d8 C00F     		lsrs	r0, r0, #31
 321 00da FFF7FEFF 		bl	VH_Write
 322              	.LVL19:
  93:BLDC_Drive.c  ****     VL_Write(coilState.VL);
 323              		.loc 1 93 0
 324 00de 207B     		ldrb	r0, [r4, #12]
 325 00e0 0007     		lsls	r0, r0, #28
 326 00e2 C00F     		lsrs	r0, r0, #31
 327 00e4 FFF7FEFF 		bl	VL_Write
 328              	.LVL20:
  94:BLDC_Drive.c  ****     WH_Write(coilState.WH);
 329              		.loc 1 94 0
 330 00e8 207B     		ldrb	r0, [r4, #12]
 331 00ea C006     		lsls	r0, r0, #27
 332 00ec C00F     		lsrs	r0, r0, #31
 333 00ee FFF7FEFF 		bl	WH_Write
 334              	.LVL21:
  95:BLDC_Drive.c  ****     WL_Write(coilState.WL);
 335              		.loc 1 95 0
 336 00f2 207B     		ldrb	r0, [r4, #12]
 337 00f4 8006     		lsls	r0, r0, #26
 338 00f6 C00F     		lsrs	r0, r0, #31
 339 00f8 FFF7FEFF 		bl	WL_Write
 340              	.LVL22:
  96:BLDC_Drive.c  **** }...
 341              		.loc 1 96 0
 342              		@ sp needed
 343 00fc 0CBC     		pop	{r2, r3}
 344 00fe 9046     		mov	r8, r2
 345 0100 9946     		mov	r9, r3
 346 0102 F8BD     		pop	{r3, r4, r5, r6, r7, pc}
 347              	.L17:
 348              		.align	2
 349              	.L16:
 350 0104 00000000 		.word	.LANCHOR0
 351              		.cfi_endproc
 352              	.LFE38:
 353              		.size	readHallState, .-readHallState
 354              		.global	hallState
 355              		.global	coilState
 356              		.comm	delay_ms,4,4
 357              		.global	currentDir
 358              		.global	currentSpeed
 359              		.global	invalidate
 360              		.bss
ARM GAS  C:\Users\casey\AppData\Local\Temp\ccnEz6na.s 			page 9


 361              		.align	2
 362              		.set	.LANCHOR0,. + 0
 363              		.type	invalidate, %object
 364              		.size	invalidate, 1
 365              	invalidate:
 366 0000 00       		.space	1
 367              		.type	currentDir, %object
 368              		.size	currentDir, 1
 369              	currentDir:
 370 0001 00       		.space	1
 371 0002 0000     		.space	2
 372              		.type	currentSpeed, %object
 373              		.size	currentSpeed, 4
 374              	currentSpeed:
 375 0004 00000000 		.space	4
 376              		.type	hallState, %object
 377              		.size	hallState, 1
 378              	hallState:
 379 0008 00       		.space	1
 380 0009 000000   		.space	3
 381              		.type	coilState, %object
 382              		.size	coilState, 1
 383              	coilState:
 384 000c 00       		.space	1
 385              		.text
 386              	.Letext0:
 387              		.file 2 "c:\\program files (x86)\\cypress\\psoc creator\\4.4\\psoc creator\\import\\gnu\\arm\\5.4.
 388              		.file 3 "c:\\program files (x86)\\cypress\\psoc creator\\4.4\\psoc creator\\import\\gnu\\arm\\5.4.
 389              		.file 4 "Generated_Source\\PSoC4/cytypes.h"
 390              		.file 5 "BLDC_Drive.h"
 391              		.file 6 "Generated_Source\\PSoC4/HALL1.h"
 392              		.file 7 "Generated_Source\\PSoC4/HALL2.h"
 393              		.file 8 "Generated_Source\\PSoC4/HALL3.h"
 394              		.file 9 "Generated_Source\\PSoC4/UH.h"
 395              		.file 10 "Generated_Source\\PSoC4/UL.h"
 396              		.file 11 "Generated_Source\\PSoC4/VH.h"
 397              		.file 12 "Generated_Source\\PSoC4/VL.h"
 398              		.file 13 "Generated_Source\\PSoC4/WH.h"
 399              		.file 14 "Generated_Source\\PSoC4/WL.h"