ARM GAS  C:\Users\casey\AppData\Local\Temp\ccVS9IQB.s 			page 1


   1              		.syntax unified
   2              		.cpu cortex-m0
   3              		.fpu softvfp
   4              		.eabi_attribute 20, 1
   5              		.eabi_attribute 21, 1
   6              		.eabi_attribute 23, 3
   7              		.eabi_attribute 24, 1
   8              		.eabi_attribute 25, 1
   9              		.eabi_attribute 26, 1
  10              		.eabi_attribute 30, 1
  11              		.eabi_attribute 34, 0
  12              		.eabi_attribute 18, 4
  13              		.thumb
  14              		.syntax unified
  15              		.file	"cyfitter_cfg.c"
  16              		.text
  17              	.Ltext0:
  18              		.cfi_sections	.debug_frame
  19              		.section	.text.cfg_write_bytes32,"ax",%progbits
  20              		.align	2
  21              		.code	16
  22              		.thumb_func
  23              		.type	cfg_write_bytes32, %function
  24              	cfg_write_bytes32:
  25              	.LFB4:
  26              		.file 1 "Generated_Source\\PSoC4\\cyfitter_cfg.c"
   1:Generated_Source\PSoC4/cyfitter_cfg.c **** 
   2:Generated_Source\PSoC4/cyfitter_cfg.c **** /*******************************************************************************
   3:Generated_Source\PSoC4/cyfitter_cfg.c **** * File Name: cyfitter_cfg.c
   4:Generated_Source\PSoC4/cyfitter_cfg.c **** * 
   5:Generated_Source\PSoC4/cyfitter_cfg.c **** * PSoC Creator  4.4
   6:Generated_Source\PSoC4/cyfitter_cfg.c **** *
   7:Generated_Source\PSoC4/cyfitter_cfg.c **** * Description:
   8:Generated_Source\PSoC4/cyfitter_cfg.c **** * This file contains device initialization code.
   9:Generated_Source\PSoC4/cyfitter_cfg.c **** * Except for the user defined sections in CyClockStartupError(), this file should not be modified.
  10:Generated_Source\PSoC4/cyfitter_cfg.c **** * This file is automatically generated by PSoC Creator.
  11:Generated_Source\PSoC4/cyfitter_cfg.c **** *
  12:Generated_Source\PSoC4/cyfitter_cfg.c **** ********************************************************************************
  13:Generated_Source\PSoC4/cyfitter_cfg.c **** * Copyright (c) 2007-2020 Cypress Semiconductor.  All rights reserved.
  14:Generated_Source\PSoC4/cyfitter_cfg.c **** * You may use this file only in accordance with the license, terms, conditions, 
  15:Generated_Source\PSoC4/cyfitter_cfg.c **** * disclaimers, and limitations in the end user license agreement accompanying 
  16:Generated_Source\PSoC4/cyfitter_cfg.c **** * the software package with which this file was provided.
  17:Generated_Source\PSoC4/cyfitter_cfg.c **** ********************************************************************************/
  18:Generated_Source\PSoC4/cyfitter_cfg.c **** 
  19:Generated_Source\PSoC4/cyfitter_cfg.c **** #include <string.h>
  20:Generated_Source\PSoC4/cyfitter_cfg.c **** #include "cytypes.h"
  21:Generated_Source\PSoC4/cyfitter_cfg.c **** #include "cydevice_trm.h"
  22:Generated_Source\PSoC4/cyfitter_cfg.c **** #include "cyfitter.h"
  23:Generated_Source\PSoC4/cyfitter_cfg.c **** #include "CyLib.h"
  24:Generated_Source\PSoC4/cyfitter_cfg.c **** #include "CyLFClk.h"
  25:Generated_Source\PSoC4/cyfitter_cfg.c **** #include "cyfitter_cfg.h"
  26:Generated_Source\PSoC4/cyfitter_cfg.c **** #include "cyapicallbacks.h"
  27:Generated_Source\PSoC4/cyfitter_cfg.c **** 
  28:Generated_Source\PSoC4/cyfitter_cfg.c **** 
  29:Generated_Source\PSoC4/cyfitter_cfg.c **** #if defined(__GNUC__) || defined(__ARMCC_VERSION)
  30:Generated_Source\PSoC4/cyfitter_cfg.c ****     #define CYPACKED 
  31:Generated_Source\PSoC4/cyfitter_cfg.c ****     #define CYPACKED_ATTR __attribute__ ((packed))
ARM GAS  C:\Users\casey\AppData\Local\Temp\ccVS9IQB.s 			page 2


  32:Generated_Source\PSoC4/cyfitter_cfg.c ****     #define CYALIGNED __attribute__ ((aligned))
  33:Generated_Source\PSoC4/cyfitter_cfg.c ****     #define CY_CFG_UNUSED __attribute__ ((unused))
  34:Generated_Source\PSoC4/cyfitter_cfg.c ****     #ifndef CY_CFG_SECTION
  35:Generated_Source\PSoC4/cyfitter_cfg.c ****         #define CY_CFG_SECTION __attribute__ ((section(".psocinit")))
  36:Generated_Source\PSoC4/cyfitter_cfg.c ****     #endif
  37:Generated_Source\PSoC4/cyfitter_cfg.c ****     
  38:Generated_Source\PSoC4/cyfitter_cfg.c ****     #if defined(__ARMCC_VERSION)
  39:Generated_Source\PSoC4/cyfitter_cfg.c ****         #define CY_CFG_MEMORY_BARRIER() __memory_changed()
  40:Generated_Source\PSoC4/cyfitter_cfg.c ****     #else
  41:Generated_Source\PSoC4/cyfitter_cfg.c ****         #define CY_CFG_MEMORY_BARRIER() __sync_synchronize()
  42:Generated_Source\PSoC4/cyfitter_cfg.c ****     #endif
  43:Generated_Source\PSoC4/cyfitter_cfg.c ****     
  44:Generated_Source\PSoC4/cyfitter_cfg.c **** #elif defined(__ICCARM__)
  45:Generated_Source\PSoC4/cyfitter_cfg.c ****     #include <intrinsics.h>
  46:Generated_Source\PSoC4/cyfitter_cfg.c **** 
  47:Generated_Source\PSoC4/cyfitter_cfg.c ****     #define CYPACKED __packed
  48:Generated_Source\PSoC4/cyfitter_cfg.c ****     #define CYPACKED_ATTR 
  49:Generated_Source\PSoC4/cyfitter_cfg.c ****     #define CYALIGNED _Pragma("data_alignment=4")
  50:Generated_Source\PSoC4/cyfitter_cfg.c ****     #define CY_CFG_UNUSED _Pragma("diag_suppress=Pe177")
  51:Generated_Source\PSoC4/cyfitter_cfg.c ****     #define CY_CFG_SECTION _Pragma("location=\".psocinit\"")
  52:Generated_Source\PSoC4/cyfitter_cfg.c ****     
  53:Generated_Source\PSoC4/cyfitter_cfg.c ****     #define CY_CFG_MEMORY_BARRIER() __DMB()
  54:Generated_Source\PSoC4/cyfitter_cfg.c ****     
  55:Generated_Source\PSoC4/cyfitter_cfg.c **** #else
  56:Generated_Source\PSoC4/cyfitter_cfg.c ****     #error Unsupported toolchain
  57:Generated_Source\PSoC4/cyfitter_cfg.c **** #endif
  58:Generated_Source\PSoC4/cyfitter_cfg.c **** 
  59:Generated_Source\PSoC4/cyfitter_cfg.c **** #ifndef CYCODE
  60:Generated_Source\PSoC4/cyfitter_cfg.c ****     #define CYCODE
  61:Generated_Source\PSoC4/cyfitter_cfg.c **** #endif
  62:Generated_Source\PSoC4/cyfitter_cfg.c **** #ifndef CYDATA
  63:Generated_Source\PSoC4/cyfitter_cfg.c ****     #define CYDATA
  64:Generated_Source\PSoC4/cyfitter_cfg.c **** #endif
  65:Generated_Source\PSoC4/cyfitter_cfg.c **** #ifndef CYFAR
  66:Generated_Source\PSoC4/cyfitter_cfg.c ****     #define CYFAR
  67:Generated_Source\PSoC4/cyfitter_cfg.c **** #endif
  68:Generated_Source\PSoC4/cyfitter_cfg.c **** #ifndef CYXDATA
  69:Generated_Source\PSoC4/cyfitter_cfg.c ****     #define CYXDATA
  70:Generated_Source\PSoC4/cyfitter_cfg.c **** #endif
  71:Generated_Source\PSoC4/cyfitter_cfg.c **** 
  72:Generated_Source\PSoC4/cyfitter_cfg.c **** 
  73:Generated_Source\PSoC4/cyfitter_cfg.c **** CY_CFG_UNUSED
  74:Generated_Source\PSoC4/cyfitter_cfg.c **** static void CYMEMZERO(void *s, size_t n);
  75:Generated_Source\PSoC4/cyfitter_cfg.c **** CY_CFG_UNUSED
  76:Generated_Source\PSoC4/cyfitter_cfg.c **** static void CYMEMZERO(void *s, size_t n)
  77:Generated_Source\PSoC4/cyfitter_cfg.c **** {
  78:Generated_Source\PSoC4/cyfitter_cfg.c **** 	(void)memset(s, 0, n);
  79:Generated_Source\PSoC4/cyfitter_cfg.c **** }
  80:Generated_Source\PSoC4/cyfitter_cfg.c **** CY_CFG_UNUSED
  81:Generated_Source\PSoC4/cyfitter_cfg.c **** static void CYCONFIGCPY(void *dest, const void *src, size_t n);
  82:Generated_Source\PSoC4/cyfitter_cfg.c **** CY_CFG_UNUSED
  83:Generated_Source\PSoC4/cyfitter_cfg.c **** static void CYCONFIGCPY(void *dest, const void *src, size_t n)
  84:Generated_Source\PSoC4/cyfitter_cfg.c **** {
  85:Generated_Source\PSoC4/cyfitter_cfg.c **** 	(void)memcpy(dest, src, n);
  86:Generated_Source\PSoC4/cyfitter_cfg.c **** }
  87:Generated_Source\PSoC4/cyfitter_cfg.c **** CY_CFG_UNUSED
  88:Generated_Source\PSoC4/cyfitter_cfg.c **** static void CYCONFIGCPYCODE(void *dest, const void *src, size_t n);
ARM GAS  C:\Users\casey\AppData\Local\Temp\ccVS9IQB.s 			page 3


  89:Generated_Source\PSoC4/cyfitter_cfg.c **** CY_CFG_UNUSED
  90:Generated_Source\PSoC4/cyfitter_cfg.c **** static void CYCONFIGCPYCODE(void *dest, const void *src, size_t n)
  91:Generated_Source\PSoC4/cyfitter_cfg.c **** {
  92:Generated_Source\PSoC4/cyfitter_cfg.c **** 	(void)memcpy(dest, src, n);
  93:Generated_Source\PSoC4/cyfitter_cfg.c **** }
  94:Generated_Source\PSoC4/cyfitter_cfg.c **** 
  95:Generated_Source\PSoC4/cyfitter_cfg.c **** 
  96:Generated_Source\PSoC4/cyfitter_cfg.c **** 
  97:Generated_Source\PSoC4/cyfitter_cfg.c **** 
  98:Generated_Source\PSoC4/cyfitter_cfg.c **** /* Clock startup error codes                                                   */
  99:Generated_Source\PSoC4/cyfitter_cfg.c **** #define CYCLOCKSTART_NO_ERROR    0u
 100:Generated_Source\PSoC4/cyfitter_cfg.c **** #define CYCLOCKSTART_XTAL_ERROR  1u
 101:Generated_Source\PSoC4/cyfitter_cfg.c **** #define CYCLOCKSTART_32KHZ_ERROR 2u
 102:Generated_Source\PSoC4/cyfitter_cfg.c **** #define CYCLOCKSTART_PLL_ERROR   3u
 103:Generated_Source\PSoC4/cyfitter_cfg.c **** #define CYCLOCKSTART_FLL_ERROR   4u
 104:Generated_Source\PSoC4/cyfitter_cfg.c **** #define CYCLOCKSTART_WCO_ERROR   5u
 105:Generated_Source\PSoC4/cyfitter_cfg.c **** 
 106:Generated_Source\PSoC4/cyfitter_cfg.c **** 
 107:Generated_Source\PSoC4/cyfitter_cfg.c **** #ifdef CY_NEED_CYCLOCKSTARTUPERROR
 108:Generated_Source\PSoC4/cyfitter_cfg.c **** /*******************************************************************************
 109:Generated_Source\PSoC4/cyfitter_cfg.c **** * Function Name: CyClockStartupError
 110:Generated_Source\PSoC4/cyfitter_cfg.c **** ********************************************************************************
 111:Generated_Source\PSoC4/cyfitter_cfg.c **** * Summary:
 112:Generated_Source\PSoC4/cyfitter_cfg.c **** *  If an error is encountered during clock configuration (crystal startup error,
 113:Generated_Source\PSoC4/cyfitter_cfg.c **** *  PLL lock error, etc.), the system will end up here.  Unless reimplemented by
 114:Generated_Source\PSoC4/cyfitter_cfg.c **** *  the customer, this function will stop in an infinite loop.
 115:Generated_Source\PSoC4/cyfitter_cfg.c **** *
 116:Generated_Source\PSoC4/cyfitter_cfg.c **** * Parameters:
 117:Generated_Source\PSoC4/cyfitter_cfg.c **** *   void
 118:Generated_Source\PSoC4/cyfitter_cfg.c **** *
 119:Generated_Source\PSoC4/cyfitter_cfg.c **** * Return:
 120:Generated_Source\PSoC4/cyfitter_cfg.c **** *   void
 121:Generated_Source\PSoC4/cyfitter_cfg.c **** *
 122:Generated_Source\PSoC4/cyfitter_cfg.c **** *******************************************************************************/
 123:Generated_Source\PSoC4/cyfitter_cfg.c **** CY_CFG_UNUSED
 124:Generated_Source\PSoC4/cyfitter_cfg.c **** static void CyClockStartupError(uint8 errorCode);
 125:Generated_Source\PSoC4/cyfitter_cfg.c **** CY_CFG_UNUSED
 126:Generated_Source\PSoC4/cyfitter_cfg.c **** static void CyClockStartupError(uint8 errorCode)
 127:Generated_Source\PSoC4/cyfitter_cfg.c **** {
 128:Generated_Source\PSoC4/cyfitter_cfg.c ****     /* To remove the compiler warning if errorCode not used.                */
 129:Generated_Source\PSoC4/cyfitter_cfg.c ****     errorCode = errorCode;
 130:Generated_Source\PSoC4/cyfitter_cfg.c **** 
 131:Generated_Source\PSoC4/cyfitter_cfg.c ****     /* If we have a clock startup error (bad MHz crystal, PLL lock, etc.),  */
 132:Generated_Source\PSoC4/cyfitter_cfg.c ****     /* we will end up here to allow the customer to implement something to  */
 133:Generated_Source\PSoC4/cyfitter_cfg.c ****     /* deal with the clock condition.                                       */
 134:Generated_Source\PSoC4/cyfitter_cfg.c **** 
 135:Generated_Source\PSoC4/cyfitter_cfg.c **** #ifdef CY_CFG_CLOCK_STARTUP_ERROR_CALLBACK
 136:Generated_Source\PSoC4/cyfitter_cfg.c ****     CY_CFG_Clock_Startup_ErrorCallback();
 137:Generated_Source\PSoC4/cyfitter_cfg.c **** #else
 138:Generated_Source\PSoC4/cyfitter_cfg.c ****     /*  If not using CY_CFG_CLOCK_STARTUP_ERROR_CALLBACK, place your clock startup code here. */
 139:Generated_Source\PSoC4/cyfitter_cfg.c ****     /* `#START CyClockStartupError` */
 140:Generated_Source\PSoC4/cyfitter_cfg.c **** 
 141:Generated_Source\PSoC4/cyfitter_cfg.c **** 
 142:Generated_Source\PSoC4/cyfitter_cfg.c **** 
 143:Generated_Source\PSoC4/cyfitter_cfg.c ****     /* `#END` */
 144:Generated_Source\PSoC4/cyfitter_cfg.c **** 
 145:Generated_Source\PSoC4/cyfitter_cfg.c ****     while(1) {}
ARM GAS  C:\Users\casey\AppData\Local\Temp\ccVS9IQB.s 			page 4


 146:Generated_Source\PSoC4/cyfitter_cfg.c **** #endif /* CY_CFG_CLOCK_STARTUP_ERROR_CALLBACK */
 147:Generated_Source\PSoC4/cyfitter_cfg.c **** }
 148:Generated_Source\PSoC4/cyfitter_cfg.c **** #endif
 149:Generated_Source\PSoC4/cyfitter_cfg.c **** 
 150:Generated_Source\PSoC4/cyfitter_cfg.c **** #define CY_CFG_BASE_ADDR_COUNT 11u
 151:Generated_Source\PSoC4/cyfitter_cfg.c **** CYPACKED typedef struct
 152:Generated_Source\PSoC4/cyfitter_cfg.c **** {
 153:Generated_Source\PSoC4/cyfitter_cfg.c **** 	uint8 offset;
 154:Generated_Source\PSoC4/cyfitter_cfg.c **** 	uint8 value;
 155:Generated_Source\PSoC4/cyfitter_cfg.c **** } CYPACKED_ATTR cy_cfg_addrvalue_t;
 156:Generated_Source\PSoC4/cyfitter_cfg.c **** 
 157:Generated_Source\PSoC4/cyfitter_cfg.c **** 
 158:Generated_Source\PSoC4/cyfitter_cfg.c **** 
 159:Generated_Source\PSoC4/cyfitter_cfg.c **** /*******************************************************************************
 160:Generated_Source\PSoC4/cyfitter_cfg.c **** * Function Name: cfg_write_bytes32
 161:Generated_Source\PSoC4/cyfitter_cfg.c **** ********************************************************************************
 162:Generated_Source\PSoC4/cyfitter_cfg.c **** * Summary:
 163:Generated_Source\PSoC4/cyfitter_cfg.c **** *  This function is used for setting up the chip configuration areas that
 164:Generated_Source\PSoC4/cyfitter_cfg.c **** *  contain relatively sparse data.
 165:Generated_Source\PSoC4/cyfitter_cfg.c **** *
 166:Generated_Source\PSoC4/cyfitter_cfg.c **** * Parameters:
 167:Generated_Source\PSoC4/cyfitter_cfg.c **** *   void
 168:Generated_Source\PSoC4/cyfitter_cfg.c **** *
 169:Generated_Source\PSoC4/cyfitter_cfg.c **** * Return:
 170:Generated_Source\PSoC4/cyfitter_cfg.c **** *   void
 171:Generated_Source\PSoC4/cyfitter_cfg.c **** *
 172:Generated_Source\PSoC4/cyfitter_cfg.c **** *******************************************************************************/
 173:Generated_Source\PSoC4/cyfitter_cfg.c **** static void cfg_write_bytes32(const uint32 addr_table[], const cy_cfg_addrvalue_t data_table[]);
 174:Generated_Source\PSoC4/cyfitter_cfg.c **** static void cfg_write_bytes32(const uint32 addr_table[], const cy_cfg_addrvalue_t data_table[])
 175:Generated_Source\PSoC4/cyfitter_cfg.c **** {
  27              		.loc 1 175 0
  28              		.cfi_startproc
  29              		@ args = 0, pretend = 0, frame = 0
  30              		@ frame_needed = 0, uses_anonymous_args = 0
  31              	.LVL0:
  32 0000 F0B5     		push	{r4, r5, r6, r7, lr}
  33              		.cfi_def_cfa_offset 20
  34              		.cfi_offset 4, -20
  35              		.cfi_offset 5, -16
  36              		.cfi_offset 6, -12
  37              		.cfi_offset 7, -8
  38              		.cfi_offset 14, -4
  39              	.LVL1:
 176:Generated_Source\PSoC4/cyfitter_cfg.c **** 	/* For 32-bit little-endian architectures */
 177:Generated_Source\PSoC4/cyfitter_cfg.c **** 	uint32 i, j = 0u;
  40              		.loc 1 177 0
  41 0002 0025     		movs	r5, #0
 178:Generated_Source\PSoC4/cyfitter_cfg.c **** 	for (i = 0u; i < CY_CFG_BASE_ADDR_COUNT; i++)
  42              		.loc 1 178 0
  43 0004 0027     		movs	r7, #0
  44 0006 11E0     		b	.L2
  45              	.LVL2:
  46              	.L5:
  47              	.LBB2:
 179:Generated_Source\PSoC4/cyfitter_cfg.c **** 	{
 180:Generated_Source\PSoC4/cyfitter_cfg.c **** 		uint32 baseAddr = addr_table[i];
  48              		.loc 1 180 0
ARM GAS  C:\Users\casey\AppData\Local\Temp\ccVS9IQB.s 			page 5


  49 0008 BB00     		lsls	r3, r7, #2
  50 000a C658     		ldr	r6, [r0, r3]
  51              	.LVL3:
 181:Generated_Source\PSoC4/cyfitter_cfg.c **** 		uint8 count = (uint8)baseAddr;
  52              		.loc 1 181 0
  53 000c F3B2     		uxtb	r3, r6
  54              	.LVL4:
 182:Generated_Source\PSoC4/cyfitter_cfg.c **** 		baseAddr &= 0xFFFFFF00u;
  55              		.loc 1 182 0
  56 000e FF22     		movs	r2, #255
  57 0010 9643     		bics	r6, r2
  58              	.LVL5:
 183:Generated_Source\PSoC4/cyfitter_cfg.c **** 		while (count != 0u)
  59              		.loc 1 183 0
  60 0012 08E0     		b	.L3
  61              	.L4:
 184:Generated_Source\PSoC4/cyfitter_cfg.c **** 		{
 185:Generated_Source\PSoC4/cyfitter_cfg.c **** 			CY_SET_REG8((void *)(baseAddr + data_table[j].offset), data_table[j].value);
  62              		.loc 1 185 0
  63 0014 6A00     		lsls	r2, r5, #1
  64 0016 8A18     		adds	r2, r1, r2
  65 0018 1478     		ldrb	r4, [r2]
  66 001a A419     		adds	r4, r4, r6
  67 001c 5278     		ldrb	r2, [r2, #1]
  68 001e 2270     		strb	r2, [r4]
 186:Generated_Source\PSoC4/cyfitter_cfg.c **** 			j++;
  69              		.loc 1 186 0
  70 0020 0135     		adds	r5, r5, #1
  71              	.LVL6:
 187:Generated_Source\PSoC4/cyfitter_cfg.c **** 			count--;
  72              		.loc 1 187 0
  73 0022 013B     		subs	r3, r3, #1
  74              	.LVL7:
  75 0024 DBB2     		uxtb	r3, r3
  76              	.LVL8:
  77              	.L3:
 183:Generated_Source\PSoC4/cyfitter_cfg.c **** 		{
  78              		.loc 1 183 0
  79 0026 002B     		cmp	r3, #0
  80 0028 F4D1     		bne	.L4
  81              	.LBE2:
 178:Generated_Source\PSoC4/cyfitter_cfg.c **** 	{
  82              		.loc 1 178 0 discriminator 2
  83 002a 0137     		adds	r7, r7, #1
  84              	.LVL9:
  85              	.L2:
 178:Generated_Source\PSoC4/cyfitter_cfg.c **** 	{
  86              		.loc 1 178 0 is_stmt 0 discriminator 1
  87 002c 0A2F     		cmp	r7, #10
  88 002e EBD9     		bls	.L5
 188:Generated_Source\PSoC4/cyfitter_cfg.c **** 		}
 189:Generated_Source\PSoC4/cyfitter_cfg.c **** 	}
 190:Generated_Source\PSoC4/cyfitter_cfg.c **** }
  89              		.loc 1 190 0 is_stmt 1
  90              		@ sp needed
  91              	.LVL10:
  92              	.LVL11:
ARM GAS  C:\Users\casey\AppData\Local\Temp\ccVS9IQB.s 			page 6


  93 0030 F0BD     		pop	{r4, r5, r6, r7, pc}
  94              		.cfi_endproc
  95              	.LFE4:
  96              		.size	cfg_write_bytes32, .-cfg_write_bytes32
  97 0032 C046     		.section	.text.CYMEMZERO,"ax",%progbits
  98              		.align	2
  99              		.code	16
 100              		.thumb_func
 101              		.type	CYMEMZERO, %function
 102              	CYMEMZERO:
 103              	.LFB1:
  77:Generated_Source\PSoC4/cyfitter_cfg.c **** 	(void)memset(s, 0, n);
 104              		.loc 1 77 0
 105              		.cfi_startproc
 106              		@ args = 0, pretend = 0, frame = 0
 107              		@ frame_needed = 0, uses_anonymous_args = 0
 108              	.LVL12:
 109 0000 10B5     		push	{r4, lr}
 110              		.cfi_def_cfa_offset 8
 111              		.cfi_offset 4, -8
 112              		.cfi_offset 14, -4
 113 0002 0A00     		movs	r2, r1
  78:Generated_Source\PSoC4/cyfitter_cfg.c **** }
 114              		.loc 1 78 0
 115 0004 0021     		movs	r1, #0
 116              	.LVL13:
 117 0006 FFF7FEFF 		bl	memset
 118              	.LVL14:
  79:Generated_Source\PSoC4/cyfitter_cfg.c **** CY_CFG_UNUSED
 119              		.loc 1 79 0
 120              		@ sp needed
 121 000a 10BD     		pop	{r4, pc}
 122              		.cfi_endproc
 123              	.LFE1:
 124              		.size	CYMEMZERO, .-CYMEMZERO
 125              		.section	.psocinit,"ax",%progbits
 126              		.align	2
 127              		.code	16
 128              		.thumb_func
 129              		.type	ClockSetup, %function
 130              	ClockSetup:
 131              	.LFB5:
 191:Generated_Source\PSoC4/cyfitter_cfg.c **** 
 192:Generated_Source\PSoC4/cyfitter_cfg.c **** 
 193:Generated_Source\PSoC4/cyfitter_cfg.c **** /*******************************************************************************
 194:Generated_Source\PSoC4/cyfitter_cfg.c **** * Function Name: ClockSetup
 195:Generated_Source\PSoC4/cyfitter_cfg.c **** ********************************************************************************
 196:Generated_Source\PSoC4/cyfitter_cfg.c **** *
 197:Generated_Source\PSoC4/cyfitter_cfg.c **** * Summary:
 198:Generated_Source\PSoC4/cyfitter_cfg.c **** *   Performs the initialization of all of the clocks in the device based on the
 199:Generated_Source\PSoC4/cyfitter_cfg.c **** *   settings in the Clock tab of the DWR.  This includes enabling the requested
 200:Generated_Source\PSoC4/cyfitter_cfg.c **** *   clocks and setting the necessary dividers to produce the desired frequency. 
 201:Generated_Source\PSoC4/cyfitter_cfg.c **** *
 202:Generated_Source\PSoC4/cyfitter_cfg.c **** * Parameters:
 203:Generated_Source\PSoC4/cyfitter_cfg.c **** *   void
 204:Generated_Source\PSoC4/cyfitter_cfg.c **** *
 205:Generated_Source\PSoC4/cyfitter_cfg.c **** * Return:
ARM GAS  C:\Users\casey\AppData\Local\Temp\ccVS9IQB.s 			page 7


 206:Generated_Source\PSoC4/cyfitter_cfg.c **** *   void
 207:Generated_Source\PSoC4/cyfitter_cfg.c **** *
 208:Generated_Source\PSoC4/cyfitter_cfg.c **** *******************************************************************************/
 209:Generated_Source\PSoC4/cyfitter_cfg.c **** static void ClockSetup(void);
 210:Generated_Source\PSoC4/cyfitter_cfg.c **** CY_CFG_SECTION
 211:Generated_Source\PSoC4/cyfitter_cfg.c **** static void ClockSetup(void)
 212:Generated_Source\PSoC4/cyfitter_cfg.c **** {
 132              		.loc 1 212 0
 133              		.cfi_startproc
 134              		@ args = 0, pretend = 0, frame = 0
 135              		@ frame_needed = 0, uses_anonymous_args = 0
 136 0000 10B5     		push	{r4, lr}
 137              		.cfi_def_cfa_offset 8
 138              		.cfi_offset 4, -8
 139              		.cfi_offset 14, -4
 213:Generated_Source\PSoC4/cyfitter_cfg.c **** 
 214:Generated_Source\PSoC4/cyfitter_cfg.c **** 	/* Set Flash Cycles based on max possible frequency in case a glitch occurs during ClockSetup(). *
 215:Generated_Source\PSoC4/cyfitter_cfg.c **** 	CY_SET_REG32((void CYXDATA *)(CYREG_CPUSS_FLASH_CTL), (0x0012u));
 140              		.loc 1 215 0
 141 0002 1222     		movs	r2, #18
 142 0004 254B     		ldr	r3, .L8
 143 0006 1A60     		str	r2, [r3]
 216:Generated_Source\PSoC4/cyfitter_cfg.c **** 	/* Setup and trim IMO based on desired frequency. */
 217:Generated_Source\PSoC4/cyfitter_cfg.c **** 	CySysClkWriteImoFreq(48u);
 144              		.loc 1 217 0
 145 0008 3020     		movs	r0, #48
 146 000a FFF7FEFF 		bl	CySysClkWriteImoFreq
 147              	.LVL15:
 218:Generated_Source\PSoC4/cyfitter_cfg.c **** 	/* CYDEV_CLK_ILO_CONFIG Starting address: CYDEV_CLK_ILO_CONFIG */
 219:Generated_Source\PSoC4/cyfitter_cfg.c **** 	CY_SET_REG32((void *)(CYREG_CLK_ILO_CONFIG), 0x80000006u);
 148              		.loc 1 219 0
 149 000e 244A     		ldr	r2, .L8+4
 150 0010 244B     		ldr	r3, .L8+8
 151 0012 1A60     		str	r2, [r3]
 220:Generated_Source\PSoC4/cyfitter_cfg.c **** 
 221:Generated_Source\PSoC4/cyfitter_cfg.c **** 
 222:Generated_Source\PSoC4/cyfitter_cfg.c **** 	/* Setup phase aligned clocks */
 223:Generated_Source\PSoC4/cyfitter_cfg.c **** 	CY_SET_REG32((void *)CYREG_PERI_DIV_16_CTL0, 0x00000000u);
 152              		.loc 1 223 0
 153 0014 0024     		movs	r4, #0
 154 0016 244B     		ldr	r3, .L8+12
 155 0018 1C60     		str	r4, [r3]
 224:Generated_Source\PSoC4/cyfitter_cfg.c **** 	CY_SET_REG32((void *)CYREG_PERI_DIV_CMD, 0x8000FF40u);
 156              		.loc 1 224 0
 157 001a 244B     		ldr	r3, .L8+16
 158 001c 244A     		ldr	r2, .L8+20
 159 001e 1A60     		str	r2, [r3]
 225:Generated_Source\PSoC4/cyfitter_cfg.c **** 	CY_SET_REG32((void *)CYREG_PERI_DIV_24_5_CTL, 0x061A7F00u);
 160              		.loc 1 225 0
 161 0020 2449     		ldr	r1, .L8+24
 162 0022 254A     		ldr	r2, .L8+28
 163 0024 1160     		str	r1, [r2]
 226:Generated_Source\PSoC4/cyfitter_cfg.c **** 	CY_SET_REG32((void *)CYREG_PERI_DIV_CMD, 0x8000FFC0u);
 164              		.loc 1 226 0
 165 0026 254A     		ldr	r2, .L8+32
 166 0028 1A60     		str	r2, [r3]
 227:Generated_Source\PSoC4/cyfitter_cfg.c **** 	CY_SET_REG32((void *)CYREG_PERI_DIV_16_CTL4, 0x00002700u);
ARM GAS  C:\Users\casey\AppData\Local\Temp\ccVS9IQB.s 			page 8


 167              		.loc 1 227 0
 168 002a 9C21     		movs	r1, #156
 169 002c 8901     		lsls	r1, r1, #6
 170 002e 244A     		ldr	r2, .L8+36
 171 0030 1160     		str	r1, [r2]
 228:Generated_Source\PSoC4/cyfitter_cfg.c **** 	CY_SET_REG32((void *)CYREG_PERI_DIV_CMD, 0x8000FF44u);
 172              		.loc 1 228 0
 173 0032 244A     		ldr	r2, .L8+40
 174 0034 1A60     		str	r2, [r3]
 229:Generated_Source\PSoC4/cyfitter_cfg.c **** 	CY_SET_REG32((void *)CYREG_PERI_DIV_16_CTL2, 0x00001800u);
 175              		.loc 1 229 0
 176 0036 C021     		movs	r1, #192
 177 0038 4901     		lsls	r1, r1, #5
 178 003a 234A     		ldr	r2, .L8+44
 179 003c 1160     		str	r1, [r2]
 230:Generated_Source\PSoC4/cyfitter_cfg.c **** 	CY_SET_REG32((void *)CYREG_PERI_DIV_CMD, 0x8000FF42u);
 180              		.loc 1 230 0
 181 003e 234A     		ldr	r2, .L8+48
 182 0040 1A60     		str	r2, [r3]
 231:Generated_Source\PSoC4/cyfitter_cfg.c **** 	CY_SET_REG32((void *)CYREG_PERI_DIV_16_CTL1, 0x00000100u);
 183              		.loc 1 231 0
 184 0042 8021     		movs	r1, #128
 185 0044 4900     		lsls	r1, r1, #1
 186 0046 224A     		ldr	r2, .L8+52
 187 0048 1160     		str	r1, [r2]
 232:Generated_Source\PSoC4/cyfitter_cfg.c **** 	CY_SET_REG32((void *)CYREG_PERI_DIV_CMD, 0x8000FF41u);
 188              		.loc 1 232 0
 189 004a 224A     		ldr	r2, .L8+56
 190 004c 1A60     		str	r2, [r3]
 233:Generated_Source\PSoC4/cyfitter_cfg.c **** 	CY_SET_REG32((void *)CYREG_PERI_DIV_16_CTL3, 0x00001C00u);
 191              		.loc 1 233 0
 192 004e E021     		movs	r1, #224
 193 0050 4901     		lsls	r1, r1, #5
 194 0052 214A     		ldr	r2, .L8+60
 195 0054 1160     		str	r1, [r2]
 234:Generated_Source\PSoC4/cyfitter_cfg.c **** 	CY_SET_REG32((void *)CYREG_PERI_DIV_CMD, 0x8000FF43u);
 196              		.loc 1 234 0
 197 0056 214A     		ldr	r2, .L8+64
 198 0058 1A60     		str	r2, [r3]
 235:Generated_Source\PSoC4/cyfitter_cfg.c **** 
 236:Generated_Source\PSoC4/cyfitter_cfg.c **** 	/* CYDEV_CLK_IMO_CONFIG Starting address: CYDEV_CLK_IMO_CONFIG */
 237:Generated_Source\PSoC4/cyfitter_cfg.c **** 	CY_SET_REG32((void *)(CYREG_CLK_IMO_CONFIG), 0x82000000u);
 199              		.loc 1 237 0
 200 005a 8222     		movs	r2, #130
 201 005c 1206     		lsls	r2, r2, #24
 202 005e 204B     		ldr	r3, .L8+68
 203 0060 1A60     		str	r2, [r3]
 238:Generated_Source\PSoC4/cyfitter_cfg.c **** 
 239:Generated_Source\PSoC4/cyfitter_cfg.c **** 	/* CYDEV_CLK_SELECT Starting address: CYDEV_CLK_SELECT */
 240:Generated_Source\PSoC4/cyfitter_cfg.c **** 	CY_SET_REG32((void *)(CYREG_CLK_SELECT), 0x00040249u);
 204              		.loc 1 240 0
 205 0062 204A     		ldr	r2, .L8+72
 206 0064 204B     		ldr	r3, .L8+76
 207 0066 1A60     		str	r2, [r3]
 241:Generated_Source\PSoC4/cyfitter_cfg.c **** 
 242:Generated_Source\PSoC4/cyfitter_cfg.c **** 	/* CYDEV_PERI_PCLK_CTL19 Starting address: CYDEV_PERI_PCLK_CTL19 */
 243:Generated_Source\PSoC4/cyfitter_cfg.c **** 	CY_SET_REG32((void *)(CYREG_PERI_PCLK_CTL19), 0x000000C0u);
ARM GAS  C:\Users\casey\AppData\Local\Temp\ccVS9IQB.s 			page 9


 208              		.loc 1 243 0
 209 0068 C022     		movs	r2, #192
 210 006a 204B     		ldr	r3, .L8+80
 211 006c 1A60     		str	r2, [r3]
 244:Generated_Source\PSoC4/cyfitter_cfg.c **** 
 245:Generated_Source\PSoC4/cyfitter_cfg.c **** 	/* CYDEV_PERI_PCLK_CTL10 Starting address: CYDEV_PERI_PCLK_CTL10 */
 246:Generated_Source\PSoC4/cyfitter_cfg.c **** 	CY_SET_REG32((void *)(CYREG_PERI_PCLK_CTL10), 0x00000044u);
 212              		.loc 1 246 0
 213 006e 7C3A     		subs	r2, r2, #124
 214 0070 1F4B     		ldr	r3, .L8+84
 215 0072 1A60     		str	r2, [r3]
 247:Generated_Source\PSoC4/cyfitter_cfg.c **** 
 248:Generated_Source\PSoC4/cyfitter_cfg.c **** 	/* CYDEV_PERI_PCLK_CTL5 Starting address: CYDEV_PERI_PCLK_CTL5 */
 249:Generated_Source\PSoC4/cyfitter_cfg.c **** 	CY_SET_REG32((void *)(CYREG_PERI_PCLK_CTL5), 0x00000042u);
 216              		.loc 1 249 0
 217 0074 023A     		subs	r2, r2, #2
 218 0076 1F4B     		ldr	r3, .L8+88
 219 0078 1A60     		str	r2, [r3]
 250:Generated_Source\PSoC4/cyfitter_cfg.c **** 
 251:Generated_Source\PSoC4/cyfitter_cfg.c **** 	/* CYDEV_PERI_PCLK_CTL3 Starting address: CYDEV_PERI_PCLK_CTL3 */
 252:Generated_Source\PSoC4/cyfitter_cfg.c **** 	CY_SET_REG32((void *)(CYREG_PERI_PCLK_CTL3), 0x00000041u);
 220              		.loc 1 252 0
 221 007a 013A     		subs	r2, r2, #1
 222 007c 1E4B     		ldr	r3, .L8+92
 223 007e 1A60     		str	r2, [r3]
 253:Generated_Source\PSoC4/cyfitter_cfg.c **** 
 254:Generated_Source\PSoC4/cyfitter_cfg.c **** 	/* CYDEV_PERI_PCLK_CTL2 Starting address: CYDEV_PERI_PCLK_CTL2 */
 255:Generated_Source\PSoC4/cyfitter_cfg.c **** 	CY_SET_REG32((void *)(CYREG_PERI_PCLK_CTL2), 0x00000043u);
 224              		.loc 1 255 0
 225 0080 0232     		adds	r2, r2, #2
 226 0082 1E4B     		ldr	r3, .L8+96
 227 0084 1A60     		str	r2, [r3]
 256:Generated_Source\PSoC4/cyfitter_cfg.c **** 
 257:Generated_Source\PSoC4/cyfitter_cfg.c **** 	(void)CyIntSetVector(8u, &CySysWdtIsr);
 228              		.loc 1 257 0
 229 0086 1E49     		ldr	r1, .L8+100
 230 0088 0820     		movs	r0, #8
 231 008a FFF7FEFF 		bl	CyIntSetVector
 232              	.LVL16:
 258:Generated_Source\PSoC4/cyfitter_cfg.c **** 	CyIntEnable(8u);
 233              		.loc 1 258 0
 234 008e 0820     		movs	r0, #8
 235 0090 FFF7FEFF 		bl	CyIntEnable
 236              	.LVL17:
 259:Generated_Source\PSoC4/cyfitter_cfg.c **** 	CY_SET_REG32((void *)(CYREG_WDT_CONFIG), 0x00000000u);
 237              		.loc 1 259 0
 238 0094 1B4B     		ldr	r3, .L8+104
 239 0096 1C60     		str	r4, [r3]
 260:Generated_Source\PSoC4/cyfitter_cfg.c **** }
 240              		.loc 1 260 0
 241              		@ sp needed
 242 0098 10BD     		pop	{r4, pc}
 243              	.L9:
 244 009a C046     		.align	2
 245              	.L8:
 246 009c 30001040 		.word	1074790448
 247 00a0 06000080 		.word	-2147483642
ARM GAS  C:\Users\casey\AppData\Local\Temp\ccVS9IQB.s 			page 10


 248 00a4 04010B40 		.word	1074462980
 249 00a8 00030140 		.word	1073808128
 250 00ac 00000140 		.word	1073807360
 251 00b0 40FF0080 		.word	-2147418304
 252 00b4 007F1A06 		.word	102399744
 253 00b8 00050140 		.word	1073808640
 254 00bc C0FF0080 		.word	-2147418176
 255 00c0 10030140 		.word	1073808144
 256 00c4 44FF0080 		.word	-2147418300
 257 00c8 08030140 		.word	1073808136
 258 00cc 42FF0080 		.word	-2147418302
 259 00d0 04030140 		.word	1073808132
 260 00d4 41FF0080 		.word	-2147418303
 261 00d8 0C030140 		.word	1073808140
 262 00dc 43FF0080 		.word	-2147418301
 263 00e0 08010B40 		.word	1074462984
 264 00e4 49020400 		.word	262729
 265 00e8 00010B40 		.word	1074462976
 266 00ec 4C010140 		.word	1073807692
 267 00f0 28010140 		.word	1073807656
 268 00f4 14010140 		.word	1073807636
 269 00f8 0C010140 		.word	1073807628
 270 00fc 08010140 		.word	1073807624
 271 0100 00000000 		.word	CySysWdtIsr
 272 0104 0C020B40 		.word	1074463244
 273              		.cfi_endproc
 274              	.LFE5:
 275              		.size	ClockSetup, .-ClockSetup
 276              		.section	.text.SetAnalogRoutingPumps,"ax",%progbits
 277              		.align	2
 278              		.global	SetAnalogRoutingPumps
 279              		.code	16
 280              		.thumb_func
 281              		.type	SetAnalogRoutingPumps, %function
 282              	SetAnalogRoutingPumps:
 283              	.LFB7:
 261:Generated_Source\PSoC4/cyfitter_cfg.c **** 
 262:Generated_Source\PSoC4/cyfitter_cfg.c **** 
 263:Generated_Source\PSoC4/cyfitter_cfg.c **** /* Analog API Functions */
 264:Generated_Source\PSoC4/cyfitter_cfg.c **** 
 265:Generated_Source\PSoC4/cyfitter_cfg.c **** 
 266:Generated_Source\PSoC4/cyfitter_cfg.c **** /*******************************************************************************
 267:Generated_Source\PSoC4/cyfitter_cfg.c **** * Function Name: AnalogSetDefault
 268:Generated_Source\PSoC4/cyfitter_cfg.c **** ********************************************************************************
 269:Generated_Source\PSoC4/cyfitter_cfg.c **** *
 270:Generated_Source\PSoC4/cyfitter_cfg.c **** * Summary:
 271:Generated_Source\PSoC4/cyfitter_cfg.c **** *  Sets up the analog portions of the chip to default values based on chip
 272:Generated_Source\PSoC4/cyfitter_cfg.c **** *  configuration options from the project.
 273:Generated_Source\PSoC4/cyfitter_cfg.c **** *
 274:Generated_Source\PSoC4/cyfitter_cfg.c **** * Parameters:
 275:Generated_Source\PSoC4/cyfitter_cfg.c **** *  void
 276:Generated_Source\PSoC4/cyfitter_cfg.c **** *
 277:Generated_Source\PSoC4/cyfitter_cfg.c **** * Return:
 278:Generated_Source\PSoC4/cyfitter_cfg.c **** *  void
 279:Generated_Source\PSoC4/cyfitter_cfg.c **** *
 280:Generated_Source\PSoC4/cyfitter_cfg.c **** *******************************************************************************/
 281:Generated_Source\PSoC4/cyfitter_cfg.c **** static void AnalogSetDefault(void);
ARM GAS  C:\Users\casey\AppData\Local\Temp\ccVS9IQB.s 			page 11


 282:Generated_Source\PSoC4/cyfitter_cfg.c **** static void AnalogSetDefault(void)
 283:Generated_Source\PSoC4/cyfitter_cfg.c **** {
 284:Generated_Source\PSoC4/cyfitter_cfg.c **** 	CY_SET_XTND_REG32((void CYFAR *)CYREG_CTBM0_DFT_CTRL, 0x00000003u);
 285:Generated_Source\PSoC4/cyfitter_cfg.c **** 	CY_SET_XTND_REG32((void CYFAR *)CYREG_CTBM1_DFT_CTRL, 0x00000003u);
 286:Generated_Source\PSoC4/cyfitter_cfg.c **** 	CY_SET_XTND_REG32((void CYFAR *)CYREG_SAR_CTRL, 0x80000000u);
 287:Generated_Source\PSoC4/cyfitter_cfg.c **** 	CY_SET_XTND_REG32((void CYFAR *)CYREG_SAR_MUX_SWITCH0, 0x000000E0u);
 288:Generated_Source\PSoC4/cyfitter_cfg.c **** 	CY_SET_XTND_REG32((void CYFAR *)CYREG_SAR_MUX_SWITCH_HW_CTRL, 0x000000E0u);
 289:Generated_Source\PSoC4/cyfitter_cfg.c **** 	CY_SET_XTND_REG32((void CYFAR *)CYREG_PASS_DSAB_DSAB_CTRL, 0x00000000u);
 290:Generated_Source\PSoC4/cyfitter_cfg.c **** 	SetAnalogRoutingPumps(1);
 291:Generated_Source\PSoC4/cyfitter_cfg.c **** }
 292:Generated_Source\PSoC4/cyfitter_cfg.c **** 
 293:Generated_Source\PSoC4/cyfitter_cfg.c **** 
 294:Generated_Source\PSoC4/cyfitter_cfg.c **** /*******************************************************************************
 295:Generated_Source\PSoC4/cyfitter_cfg.c **** * Function Name: SetAnalogRoutingPumps
 296:Generated_Source\PSoC4/cyfitter_cfg.c **** ********************************************************************************
 297:Generated_Source\PSoC4/cyfitter_cfg.c **** *
 298:Generated_Source\PSoC4/cyfitter_cfg.c **** * Summary:
 299:Generated_Source\PSoC4/cyfitter_cfg.c **** * Enables or disables the analog pumps feeding analog routing switches.
 300:Generated_Source\PSoC4/cyfitter_cfg.c **** * Intended to be called at startup, based on the Vdda system configuration;
 301:Generated_Source\PSoC4/cyfitter_cfg.c **** * may be called during operation when the user informs us that the Vdda voltage crossed the pump th
 302:Generated_Source\PSoC4/cyfitter_cfg.c **** *
 303:Generated_Source\PSoC4/cyfitter_cfg.c **** * Parameters:
 304:Generated_Source\PSoC4/cyfitter_cfg.c **** *  enabled - 1 to enable the pumps, 0 to disable the pumps
 305:Generated_Source\PSoC4/cyfitter_cfg.c **** *
 306:Generated_Source\PSoC4/cyfitter_cfg.c **** * Return:
 307:Generated_Source\PSoC4/cyfitter_cfg.c **** *  void
 308:Generated_Source\PSoC4/cyfitter_cfg.c **** *
 309:Generated_Source\PSoC4/cyfitter_cfg.c **** *******************************************************************************/
 310:Generated_Source\PSoC4/cyfitter_cfg.c **** void SetAnalogRoutingPumps(uint8 enabled)
 311:Generated_Source\PSoC4/cyfitter_cfg.c **** {
 284              		.loc 1 311 0
 285              		.cfi_startproc
 286              		@ args = 0, pretend = 0, frame = 0
 287              		@ frame_needed = 0, uses_anonymous_args = 0
 288              		@ link register save eliminated.
 289              	.LVL18:
 312:Generated_Source\PSoC4/cyfitter_cfg.c **** 	uint32 regValue = CY_GET_XTND_REG32((void *)(CYREG_SAR_PUMP_CTRL));
 290              		.loc 1 312 0
 291 0000 064B     		ldr	r3, .L13
 292 0002 1B68     		ldr	r3, [r3]
 293              	.LVL19:
 313:Generated_Source\PSoC4/cyfitter_cfg.c **** 	if (enabled != 0u)
 294              		.loc 1 313 0
 295 0004 0028     		cmp	r0, #0
 296 0006 03D0     		beq	.L11
 314:Generated_Source\PSoC4/cyfitter_cfg.c **** 	{
 315:Generated_Source\PSoC4/cyfitter_cfg.c **** 		regValue |= 0x80000000u;
 297              		.loc 1 315 0
 298 0008 8022     		movs	r2, #128
 299 000a 1206     		lsls	r2, r2, #24
 300 000c 1343     		orrs	r3, r2
 301              	.LVL20:
 302 000e 01E0     		b	.L12
 303              	.L11:
 316:Generated_Source\PSoC4/cyfitter_cfg.c **** 	}
 317:Generated_Source\PSoC4/cyfitter_cfg.c **** 	else
 318:Generated_Source\PSoC4/cyfitter_cfg.c **** 	{
ARM GAS  C:\Users\casey\AppData\Local\Temp\ccVS9IQB.s 			page 12


 319:Generated_Source\PSoC4/cyfitter_cfg.c **** 		regValue &= ~0x80000000u;
 304              		.loc 1 319 0
 305 0010 5B00     		lsls	r3, r3, #1
 306              	.LVL21:
 307 0012 5B08     		lsrs	r3, r3, #1
 308              	.LVL22:
 309              	.L12:
 320:Generated_Source\PSoC4/cyfitter_cfg.c **** 	}
 321:Generated_Source\PSoC4/cyfitter_cfg.c **** 	CY_SET_XTND_REG32((void *)(CYREG_SAR_PUMP_CTRL), regValue);
 310              		.loc 1 321 0
 311 0014 014A     		ldr	r2, .L13
 312 0016 1360     		str	r3, [r2]
 322:Generated_Source\PSoC4/cyfitter_cfg.c **** }
 313              		.loc 1 322 0
 314              		@ sp needed
 315 0018 7047     		bx	lr
 316              	.L14:
 317 001a C046     		.align	2
 318              	.L13:
 319 001c 80033A40 		.word	1077543808
 320              		.cfi_endproc
 321              	.LFE7:
 322              		.size	SetAnalogRoutingPumps, .-SetAnalogRoutingPumps
 323              		.section	.text.AnalogSetDefault,"ax",%progbits
 324              		.align	2
 325              		.code	16
 326              		.thumb_func
 327              		.type	AnalogSetDefault, %function
 328              	AnalogSetDefault:
 329              	.LFB6:
 283:Generated_Source\PSoC4/cyfitter_cfg.c **** 	CY_SET_XTND_REG32((void CYFAR *)CYREG_CTBM0_DFT_CTRL, 0x00000003u);
 330              		.loc 1 283 0
 331              		.cfi_startproc
 332              		@ args = 0, pretend = 0, frame = 0
 333              		@ frame_needed = 0, uses_anonymous_args = 0
 334 0000 10B5     		push	{r4, lr}
 335              		.cfi_def_cfa_offset 8
 336              		.cfi_offset 4, -8
 337              		.cfi_offset 14, -4
 284:Generated_Source\PSoC4/cyfitter_cfg.c **** 	CY_SET_XTND_REG32((void CYFAR *)CYREG_CTBM1_DFT_CTRL, 0x00000003u);
 338              		.loc 1 284 0
 339 0002 0323     		movs	r3, #3
 340 0004 094A     		ldr	r2, .L16
 341 0006 1360     		str	r3, [r2]
 285:Generated_Source\PSoC4/cyfitter_cfg.c **** 	CY_SET_XTND_REG32((void CYFAR *)CYREG_SAR_CTRL, 0x80000000u);
 342              		.loc 1 285 0
 343 0008 094A     		ldr	r2, .L16+4
 344 000a 1360     		str	r3, [r2]
 286:Generated_Source\PSoC4/cyfitter_cfg.c **** 	CY_SET_XTND_REG32((void CYFAR *)CYREG_SAR_MUX_SWITCH0, 0x000000E0u);
 345              		.loc 1 286 0
 346 000c 8022     		movs	r2, #128
 347 000e 1206     		lsls	r2, r2, #24
 348 0010 084B     		ldr	r3, .L16+8
 349 0012 1A60     		str	r2, [r3]
 287:Generated_Source\PSoC4/cyfitter_cfg.c **** 	CY_SET_XTND_REG32((void CYFAR *)CYREG_SAR_MUX_SWITCH_HW_CTRL, 0x000000E0u);
 350              		.loc 1 287 0
 351 0014 E023     		movs	r3, #224
ARM GAS  C:\Users\casey\AppData\Local\Temp\ccVS9IQB.s 			page 13


 352 0016 084A     		ldr	r2, .L16+12
 353 0018 1360     		str	r3, [r2]
 288:Generated_Source\PSoC4/cyfitter_cfg.c **** 	CY_SET_XTND_REG32((void CYFAR *)CYREG_PASS_DSAB_DSAB_CTRL, 0x00000000u);
 354              		.loc 1 288 0
 355 001a 084A     		ldr	r2, .L16+16
 356 001c 1360     		str	r3, [r2]
 289:Generated_Source\PSoC4/cyfitter_cfg.c **** 	SetAnalogRoutingPumps(1);
 357              		.loc 1 289 0
 358 001e 0022     		movs	r2, #0
 359 0020 074B     		ldr	r3, .L16+20
 360 0022 1A60     		str	r2, [r3]
 290:Generated_Source\PSoC4/cyfitter_cfg.c **** }
 361              		.loc 1 290 0
 362 0024 0120     		movs	r0, #1
 363 0026 FFF7FEFF 		bl	SetAnalogRoutingPumps
 364              	.LVL23:
 291:Generated_Source\PSoC4/cyfitter_cfg.c **** 
 365              		.loc 1 291 0
 366              		@ sp needed
 367 002a 10BD     		pop	{r4, pc}
 368              	.L17:
 369              		.align	2
 370              	.L16:
 371 002c 30003040 		.word	1076887600
 372 0030 30003140 		.word	1076953136
 373 0034 00003A40 		.word	1077542912
 374 0038 00033A40 		.word	1077543680
 375 003c 40033A40 		.word	1077543744
 376 0040 000E3F40 		.word	1077874176
 377              		.cfi_endproc
 378              	.LFE6:
 379              		.size	AnalogSetDefault, .-AnalogSetDefault
 380              		.section	.psocinit
 381              		.align	2
 382              		.global	cyfitter_cfg
 383              		.code	16
 384              		.thumb_func
 385              		.type	cyfitter_cfg, %function
 386              	cyfitter_cfg:
 387              	.LFB8:
 323:Generated_Source\PSoC4/cyfitter_cfg.c **** 
 324:Generated_Source\PSoC4/cyfitter_cfg.c **** 
 325:Generated_Source\PSoC4/cyfitter_cfg.c **** 
 326:Generated_Source\PSoC4/cyfitter_cfg.c **** 
 327:Generated_Source\PSoC4/cyfitter_cfg.c **** /*******************************************************************************
 328:Generated_Source\PSoC4/cyfitter_cfg.c **** * Function Name: cyfitter_cfg
 329:Generated_Source\PSoC4/cyfitter_cfg.c **** ********************************************************************************
 330:Generated_Source\PSoC4/cyfitter_cfg.c **** * Summary:
 331:Generated_Source\PSoC4/cyfitter_cfg.c **** *  This function is called by the start-up code for the selected device. It
 332:Generated_Source\PSoC4/cyfitter_cfg.c **** *  performs all of the necessary device configuration based on the design
 333:Generated_Source\PSoC4/cyfitter_cfg.c **** *  settings.  This includes settings from the Design Wide Resources (DWR) such
 334:Generated_Source\PSoC4/cyfitter_cfg.c **** *  as Clocks and Pins as well as any component configuration that is necessary.
 335:Generated_Source\PSoC4/cyfitter_cfg.c **** *
 336:Generated_Source\PSoC4/cyfitter_cfg.c **** * Parameters:
 337:Generated_Source\PSoC4/cyfitter_cfg.c **** *   void
 338:Generated_Source\PSoC4/cyfitter_cfg.c **** *
 339:Generated_Source\PSoC4/cyfitter_cfg.c **** * Return:
ARM GAS  C:\Users\casey\AppData\Local\Temp\ccVS9IQB.s 			page 14


 340:Generated_Source\PSoC4/cyfitter_cfg.c **** *   void
 341:Generated_Source\PSoC4/cyfitter_cfg.c **** *
 342:Generated_Source\PSoC4/cyfitter_cfg.c **** *******************************************************************************/
 343:Generated_Source\PSoC4/cyfitter_cfg.c **** CY_CFG_SECTION
 344:Generated_Source\PSoC4/cyfitter_cfg.c **** void cyfitter_cfg(void)
 345:Generated_Source\PSoC4/cyfitter_cfg.c **** {
 388              		.loc 1 345 0
 389              		.cfi_startproc
 390              		@ args = 0, pretend = 0, frame = 0
 391              		@ frame_needed = 0, uses_anonymous_args = 0
 392 0108 10B5     		push	{r4, lr}
 393              		.cfi_def_cfa_offset 8
 394              		.cfi_offset 4, -8
 395              		.cfi_offset 14, -4
 346:Generated_Source\PSoC4/cyfitter_cfg.c **** 	/* Disable interrupts by default. Let user enable if/when they want. */
 347:Generated_Source\PSoC4/cyfitter_cfg.c **** 	CyGlobalIntDisable;
 396              		.loc 1 347 0
 397              		.syntax divided
 398              	@ 347 "Generated_Source\PSoC4\cyfitter_cfg.c" 1
 399 010a 72B6     		CPSID   i
 400              	@ 0 "" 2
 348:Generated_Source\PSoC4/cyfitter_cfg.c **** 
 349:Generated_Source\PSoC4/cyfitter_cfg.c **** 	/* Enable the clock in the interrupt controller for the routed interrupts */
 350:Generated_Source\PSoC4/cyfitter_cfg.c **** 	CY_SET_REG8((void *)CYREG_UDB_UDB_INT_CLK_CTL, 0x01u);
 401              		.loc 1 350 0
 402              		.thumb
 403              		.syntax unified
 404 010c 0122     		movs	r2, #1
 405 010e 3E4B     		ldr	r3, .L21
 406 0110 1A70     		strb	r2, [r3]
 407              	.LVL24:
 408              	.LBB3:
 351:Generated_Source\PSoC4/cyfitter_cfg.c **** 	{
 352:Generated_Source\PSoC4/cyfitter_cfg.c **** 		static const uint32 CYCODE cy_cfg_addr_table[] = {
 353:Generated_Source\PSoC4/cyfitter_cfg.c **** 			0x400F0001u, /* Base address: 0x400F0000 Count: 1 */
 354:Generated_Source\PSoC4/cyfitter_cfg.c **** 			0x400F322Du, /* Base address: 0x400F3200 Count: 45 */
 355:Generated_Source\PSoC4/cyfitter_cfg.c **** 			0x400F3309u, /* Base address: 0x400F3300 Count: 9 */
 356:Generated_Source\PSoC4/cyfitter_cfg.c **** 			0x400F3433u, /* Base address: 0x400F3400 Count: 51 */
 357:Generated_Source\PSoC4/cyfitter_cfg.c **** 			0x400F3514u, /* Base address: 0x400F3500 Count: 20 */
 358:Generated_Source\PSoC4/cyfitter_cfg.c **** 			0x400F4002u, /* Base address: 0x400F4000 Count: 2 */
 359:Generated_Source\PSoC4/cyfitter_cfg.c **** 			0x400F4101u, /* Base address: 0x400F4100 Count: 1 */
 360:Generated_Source\PSoC4/cyfitter_cfg.c **** 			0x400F4203u, /* Base address: 0x400F4200 Count: 3 */
 361:Generated_Source\PSoC4/cyfitter_cfg.c **** 			0x400F4502u, /* Base address: 0x400F4500 Count: 2 */
 362:Generated_Source\PSoC4/cyfitter_cfg.c **** 			0x400F4601u, /* Base address: 0x400F4600 Count: 1 */
 363:Generated_Source\PSoC4/cyfitter_cfg.c **** 			0x400F6003u, /* Base address: 0x400F6000 Count: 3 */
 364:Generated_Source\PSoC4/cyfitter_cfg.c **** 		};
 365:Generated_Source\PSoC4/cyfitter_cfg.c **** 
 366:Generated_Source\PSoC4/cyfitter_cfg.c **** 		static const cy_cfg_addrvalue_t CYCODE cy_cfg_data_table[] = {
 367:Generated_Source\PSoC4/cyfitter_cfg.c **** 			{0x85u, 0x0Du},
 368:Generated_Source\PSoC4/cyfitter_cfg.c **** 			{0x40u, 0x43u},
 369:Generated_Source\PSoC4/cyfitter_cfg.c **** 			{0x49u, 0xFFu},
 370:Generated_Source\PSoC4/cyfitter_cfg.c **** 			{0x4Au, 0xFFu},
 371:Generated_Source\PSoC4/cyfitter_cfg.c **** 			{0x4Bu, 0xFFu},
 372:Generated_Source\PSoC4/cyfitter_cfg.c **** 			{0x4Fu, 0x01u},
 373:Generated_Source\PSoC4/cyfitter_cfg.c **** 			{0x50u, 0x18u},
 374:Generated_Source\PSoC4/cyfitter_cfg.c **** 			{0x52u, 0x80u},
 375:Generated_Source\PSoC4/cyfitter_cfg.c **** 			{0x5Au, 0x04u},
ARM GAS  C:\Users\casey\AppData\Local\Temp\ccVS9IQB.s 			page 15


 376:Generated_Source\PSoC4/cyfitter_cfg.c **** 			{0x5Bu, 0x04u},
 377:Generated_Source\PSoC4/cyfitter_cfg.c **** 			{0x5Du, 0x99u},
 378:Generated_Source\PSoC4/cyfitter_cfg.c **** 			{0x5Fu, 0x01u},
 379:Generated_Source\PSoC4/cyfitter_cfg.c **** 			{0x60u, 0x40u},
 380:Generated_Source\PSoC4/cyfitter_cfg.c **** 			{0x62u, 0x40u},
 381:Generated_Source\PSoC4/cyfitter_cfg.c **** 			{0x64u, 0x40u},
 382:Generated_Source\PSoC4/cyfitter_cfg.c **** 			{0x65u, 0x40u},
 383:Generated_Source\PSoC4/cyfitter_cfg.c **** 			{0x66u, 0x80u},
 384:Generated_Source\PSoC4/cyfitter_cfg.c **** 			{0x68u, 0x80u},
 385:Generated_Source\PSoC4/cyfitter_cfg.c **** 			{0x6Au, 0x80u},
 386:Generated_Source\PSoC4/cyfitter_cfg.c **** 			{0x6Cu, 0x80u},
 387:Generated_Source\PSoC4/cyfitter_cfg.c **** 			{0x6Eu, 0x80u},
 388:Generated_Source\PSoC4/cyfitter_cfg.c **** 			{0xA8u, 0x01u},
 389:Generated_Source\PSoC4/cyfitter_cfg.c **** 			{0xB6u, 0x01u},
 390:Generated_Source\PSoC4/cyfitter_cfg.c **** 			{0xBEu, 0x40u},
 391:Generated_Source\PSoC4/cyfitter_cfg.c **** 			{0xC0u, 0x43u},
 392:Generated_Source\PSoC4/cyfitter_cfg.c **** 			{0xC9u, 0xFFu},
 393:Generated_Source\PSoC4/cyfitter_cfg.c **** 			{0xCAu, 0xFFu},
 394:Generated_Source\PSoC4/cyfitter_cfg.c **** 			{0xCBu, 0xFFu},
 395:Generated_Source\PSoC4/cyfitter_cfg.c **** 			{0xCDu, 0x83u},
 396:Generated_Source\PSoC4/cyfitter_cfg.c **** 			{0xCEu, 0x03u},
 397:Generated_Source\PSoC4/cyfitter_cfg.c **** 			{0xCFu, 0x01u},
 398:Generated_Source\PSoC4/cyfitter_cfg.c **** 			{0xD0u, 0x18u},
 399:Generated_Source\PSoC4/cyfitter_cfg.c **** 			{0xD8u, 0x04u},
 400:Generated_Source\PSoC4/cyfitter_cfg.c **** 			{0xDAu, 0x04u},
 401:Generated_Source\PSoC4/cyfitter_cfg.c **** 			{0xDBu, 0x04u},
 402:Generated_Source\PSoC4/cyfitter_cfg.c **** 			{0xDDu, 0x09u},
 403:Generated_Source\PSoC4/cyfitter_cfg.c **** 			{0xDFu, 0x01u},
 404:Generated_Source\PSoC4/cyfitter_cfg.c **** 			{0xE0u, 0x40u},
 405:Generated_Source\PSoC4/cyfitter_cfg.c **** 			{0xE2u, 0x40u},
 406:Generated_Source\PSoC4/cyfitter_cfg.c **** 			{0xE4u, 0x40u},
 407:Generated_Source\PSoC4/cyfitter_cfg.c **** 			{0xE5u, 0x40u},
 408:Generated_Source\PSoC4/cyfitter_cfg.c **** 			{0xE6u, 0x80u},
 409:Generated_Source\PSoC4/cyfitter_cfg.c **** 			{0xE8u, 0x80u},
 410:Generated_Source\PSoC4/cyfitter_cfg.c **** 			{0xEAu, 0x80u},
 411:Generated_Source\PSoC4/cyfitter_cfg.c **** 			{0xECu, 0x80u},
 412:Generated_Source\PSoC4/cyfitter_cfg.c **** 			{0xEEu, 0x80u},
 413:Generated_Source\PSoC4/cyfitter_cfg.c **** 			{0x11u, 0x10u},
 414:Generated_Source\PSoC4/cyfitter_cfg.c **** 			{0x19u, 0x40u},
 415:Generated_Source\PSoC4/cyfitter_cfg.c **** 			{0x42u, 0xA0u},
 416:Generated_Source\PSoC4/cyfitter_cfg.c **** 			{0x46u, 0xA0u},
 417:Generated_Source\PSoC4/cyfitter_cfg.c **** 			{0x59u, 0x40u},
 418:Generated_Source\PSoC4/cyfitter_cfg.c **** 			{0x76u, 0x80u},
 419:Generated_Source\PSoC4/cyfitter_cfg.c **** 			{0xC4u, 0x02u},
 420:Generated_Source\PSoC4/cyfitter_cfg.c **** 			{0xD0u, 0xC3u},
 421:Generated_Source\PSoC4/cyfitter_cfg.c **** 			{0xD6u, 0x08u},
 422:Generated_Source\PSoC4/cyfitter_cfg.c **** 			{0x40u, 0x43u},
 423:Generated_Source\PSoC4/cyfitter_cfg.c **** 			{0x49u, 0xFFu},
 424:Generated_Source\PSoC4/cyfitter_cfg.c **** 			{0x4Au, 0xFFu},
 425:Generated_Source\PSoC4/cyfitter_cfg.c **** 			{0x4Bu, 0xFFu},
 426:Generated_Source\PSoC4/cyfitter_cfg.c **** 			{0x4Du, 0x83u},
 427:Generated_Source\PSoC4/cyfitter_cfg.c **** 			{0x4Eu, 0x03u},
 428:Generated_Source\PSoC4/cyfitter_cfg.c **** 			{0x4Fu, 0x01u},
 429:Generated_Source\PSoC4/cyfitter_cfg.c **** 			{0x50u, 0x18u},
 430:Generated_Source\PSoC4/cyfitter_cfg.c **** 			{0x5Au, 0x04u},
 431:Generated_Source\PSoC4/cyfitter_cfg.c **** 			{0x5Du, 0x09u},
 432:Generated_Source\PSoC4/cyfitter_cfg.c **** 			{0x5Fu, 0x01u},
ARM GAS  C:\Users\casey\AppData\Local\Temp\ccVS9IQB.s 			page 16


 433:Generated_Source\PSoC4/cyfitter_cfg.c **** 			{0x60u, 0x40u},
 434:Generated_Source\PSoC4/cyfitter_cfg.c **** 			{0x62u, 0x40u},
 435:Generated_Source\PSoC4/cyfitter_cfg.c **** 			{0x64u, 0x40u},
 436:Generated_Source\PSoC4/cyfitter_cfg.c **** 			{0x65u, 0x40u},
 437:Generated_Source\PSoC4/cyfitter_cfg.c **** 			{0x66u, 0x80u},
 438:Generated_Source\PSoC4/cyfitter_cfg.c **** 			{0x68u, 0x80u},
 439:Generated_Source\PSoC4/cyfitter_cfg.c **** 			{0x6Au, 0x80u},
 440:Generated_Source\PSoC4/cyfitter_cfg.c **** 			{0x6Cu, 0x80u},
 441:Generated_Source\PSoC4/cyfitter_cfg.c **** 			{0x6Eu, 0x80u},
 442:Generated_Source\PSoC4/cyfitter_cfg.c **** 			{0xA2u, 0x01u},
 443:Generated_Source\PSoC4/cyfitter_cfg.c **** 			{0xA6u, 0x01u},
 444:Generated_Source\PSoC4/cyfitter_cfg.c **** 			{0xB0u, 0x01u},
 445:Generated_Source\PSoC4/cyfitter_cfg.c **** 			{0xBEu, 0x01u},
 446:Generated_Source\PSoC4/cyfitter_cfg.c **** 			{0xC0u, 0x43u},
 447:Generated_Source\PSoC4/cyfitter_cfg.c **** 			{0xC5u, 0xECu},
 448:Generated_Source\PSoC4/cyfitter_cfg.c **** 			{0xC6u, 0x20u},
 449:Generated_Source\PSoC4/cyfitter_cfg.c **** 			{0xC8u, 0x0Bu},
 450:Generated_Source\PSoC4/cyfitter_cfg.c **** 			{0xC9u, 0xFFu},
 451:Generated_Source\PSoC4/cyfitter_cfg.c **** 			{0xCAu, 0xFFu},
 452:Generated_Source\PSoC4/cyfitter_cfg.c **** 			{0xCBu, 0xFFu},
 453:Generated_Source\PSoC4/cyfitter_cfg.c **** 			{0xCDu, 0x83u},
 454:Generated_Source\PSoC4/cyfitter_cfg.c **** 			{0xCEu, 0x03u},
 455:Generated_Source\PSoC4/cyfitter_cfg.c **** 			{0xCFu, 0x01u},
 456:Generated_Source\PSoC4/cyfitter_cfg.c **** 			{0xD0u, 0x18u},
 457:Generated_Source\PSoC4/cyfitter_cfg.c **** 			{0xD4u, 0x01u},
 458:Generated_Source\PSoC4/cyfitter_cfg.c **** 			{0xD6u, 0x04u},
 459:Generated_Source\PSoC4/cyfitter_cfg.c **** 			{0xD8u, 0x04u},
 460:Generated_Source\PSoC4/cyfitter_cfg.c **** 			{0xDAu, 0x04u},
 461:Generated_Source\PSoC4/cyfitter_cfg.c **** 			{0xDBu, 0x04u},
 462:Generated_Source\PSoC4/cyfitter_cfg.c **** 			{0xDDu, 0x99u},
 463:Generated_Source\PSoC4/cyfitter_cfg.c **** 			{0xDFu, 0x01u},
 464:Generated_Source\PSoC4/cyfitter_cfg.c **** 			{0xE0u, 0x40u},
 465:Generated_Source\PSoC4/cyfitter_cfg.c **** 			{0xE2u, 0x40u},
 466:Generated_Source\PSoC4/cyfitter_cfg.c **** 			{0xE4u, 0x40u},
 467:Generated_Source\PSoC4/cyfitter_cfg.c **** 			{0xE5u, 0x40u},
 468:Generated_Source\PSoC4/cyfitter_cfg.c **** 			{0xE6u, 0x80u},
 469:Generated_Source\PSoC4/cyfitter_cfg.c **** 			{0xE8u, 0x80u},
 470:Generated_Source\PSoC4/cyfitter_cfg.c **** 			{0xEAu, 0x80u},
 471:Generated_Source\PSoC4/cyfitter_cfg.c **** 			{0xECu, 0x80u},
 472:Generated_Source\PSoC4/cyfitter_cfg.c **** 			{0xEEu, 0x80u},
 473:Generated_Source\PSoC4/cyfitter_cfg.c **** 			{0x16u, 0xA0u},
 474:Generated_Source\PSoC4/cyfitter_cfg.c **** 			{0x1Eu, 0x80u},
 475:Generated_Source\PSoC4/cyfitter_cfg.c **** 			{0x42u, 0xA0u},
 476:Generated_Source\PSoC4/cyfitter_cfg.c **** 			{0x46u, 0xA0u},
 477:Generated_Source\PSoC4/cyfitter_cfg.c **** 			{0x4Du, 0x04u},
 478:Generated_Source\PSoC4/cyfitter_cfg.c **** 			{0x4Fu, 0x01u},
 479:Generated_Source\PSoC4/cyfitter_cfg.c **** 			{0x56u, 0x20u},
 480:Generated_Source\PSoC4/cyfitter_cfg.c **** 			{0x5Du, 0x04u},
 481:Generated_Source\PSoC4/cyfitter_cfg.c **** 			{0x5Eu, 0x80u},
 482:Generated_Source\PSoC4/cyfitter_cfg.c **** 			{0x5Fu, 0x01u},
 483:Generated_Source\PSoC4/cyfitter_cfg.c **** 			{0x67u, 0x40u},
 484:Generated_Source\PSoC4/cyfitter_cfg.c **** 			{0x87u, 0x40u},
 485:Generated_Source\PSoC4/cyfitter_cfg.c **** 			{0x9Au, 0x80u},
 486:Generated_Source\PSoC4/cyfitter_cfg.c **** 			{0x9Eu, 0x20u},
 487:Generated_Source\PSoC4/cyfitter_cfg.c **** 			{0xADu, 0x10u},
 488:Generated_Source\PSoC4/cyfitter_cfg.c **** 			{0xC4u, 0x30u},
 489:Generated_Source\PSoC4/cyfitter_cfg.c **** 			{0xD0u, 0xC3u},
ARM GAS  C:\Users\casey\AppData\Local\Temp\ccVS9IQB.s 			page 17


 490:Generated_Source\PSoC4/cyfitter_cfg.c **** 			{0xD6u, 0xD0u},
 491:Generated_Source\PSoC4/cyfitter_cfg.c **** 			{0xD8u, 0x80u},
 492:Generated_Source\PSoC4/cyfitter_cfg.c **** 			{0xEEu, 0x08u},
 493:Generated_Source\PSoC4/cyfitter_cfg.c **** 			{0x6Bu, 0x02u},
 494:Generated_Source\PSoC4/cyfitter_cfg.c **** 			{0xDAu, 0x40u},
 495:Generated_Source\PSoC4/cyfitter_cfg.c **** 			{0x9Fu, 0x02u},
 496:Generated_Source\PSoC4/cyfitter_cfg.c **** 			{0x87u, 0x02u},
 497:Generated_Source\PSoC4/cyfitter_cfg.c **** 			{0x9Fu, 0x02u},
 498:Generated_Source\PSoC4/cyfitter_cfg.c **** 			{0xE6u, 0x40u},
 499:Generated_Source\PSoC4/cyfitter_cfg.c **** 			{0x0Bu, 0x08u},
 500:Generated_Source\PSoC4/cyfitter_cfg.c **** 			{0xC2u, 0x02u},
 501:Generated_Source\PSoC4/cyfitter_cfg.c **** 			{0xAFu, 0x04u},
 502:Generated_Source\PSoC4/cyfitter_cfg.c **** 			{0x02u, 0x01u},
 503:Generated_Source\PSoC4/cyfitter_cfg.c **** 			{0x11u, 0x01u},
 504:Generated_Source\PSoC4/cyfitter_cfg.c **** 			{0x13u, 0x01u},
 505:Generated_Source\PSoC4/cyfitter_cfg.c **** 		};
 506:Generated_Source\PSoC4/cyfitter_cfg.c **** 
 507:Generated_Source\PSoC4/cyfitter_cfg.c **** 
 508:Generated_Source\PSoC4/cyfitter_cfg.c **** 
 509:Generated_Source\PSoC4/cyfitter_cfg.c **** 		CYPACKED typedef struct {
 510:Generated_Source\PSoC4/cyfitter_cfg.c **** 			void CYFAR *address;
 511:Generated_Source\PSoC4/cyfitter_cfg.c **** 			uint16 size;
 512:Generated_Source\PSoC4/cyfitter_cfg.c **** 		} CYPACKED_ATTR cfg_memset_t;
 513:Generated_Source\PSoC4/cyfitter_cfg.c **** 
 514:Generated_Source\PSoC4/cyfitter_cfg.c **** 		static const cfg_memset_t CYCODE cfg_memset_list[] = {
 515:Generated_Source\PSoC4/cyfitter_cfg.c **** 			/* address, size */
 516:Generated_Source\PSoC4/cyfitter_cfg.c **** 			{(void CYFAR *)(CYDEV_UDB_P0_U0_BASE), 2048u},
 517:Generated_Source\PSoC4/cyfitter_cfg.c **** 			{(void CYFAR *)(CYDEV_UDB_DSI0_BASE), 2048u},
 518:Generated_Source\PSoC4/cyfitter_cfg.c **** 		};
 519:Generated_Source\PSoC4/cyfitter_cfg.c **** 
 520:Generated_Source\PSoC4/cyfitter_cfg.c **** 		uint8 CYDATA i;
 521:Generated_Source\PSoC4/cyfitter_cfg.c **** 
 522:Generated_Source\PSoC4/cyfitter_cfg.c **** 		/* Zero out critical memory blocks before beginning configuration */
 523:Generated_Source\PSoC4/cyfitter_cfg.c **** 		for (i = 0u; i < (sizeof(cfg_memset_list)/sizeof(cfg_memset_list[0])); i++)
 409              		.loc 1 523 0
 410 0112 0024     		movs	r4, #0
 411 0114 0FE0     		b	.L19
 412              	.LVL25:
 413              	.L20:
 414              	.LBB4:
 524:Generated_Source\PSoC4/cyfitter_cfg.c **** 		{
 525:Generated_Source\PSoC4/cyfitter_cfg.c **** 			const cfg_memset_t CYCODE * CYDATA ms = &cfg_memset_list[i];
 526:Generated_Source\PSoC4/cyfitter_cfg.c **** 			CYMEMZERO(ms->address, (size_t)(uint32)(ms->size));
 415              		.loc 1 526 0 discriminator 3
 416 0116 3D48     		ldr	r0, .L21+4
 417 0118 6200     		lsls	r2, r4, #1
 418 011a 1319     		adds	r3, r2, r4
 419 011c 5900     		lsls	r1, r3, #1
 420 011e 0B00     		movs	r3, r1
 421 0120 4118     		adds	r1, r0, r1
 422 0122 8988     		ldrh	r1, [r1, #4]
 423 0124 1A5A     		ldrh	r2, [r3, r0]
 424 0126 C318     		adds	r3, r0, r3
 425 0128 5888     		ldrh	r0, [r3, #2]
 426 012a 0004     		lsls	r0, r0, #16
 427 012c 1043     		orrs	r0, r2
 428 012e FFF7FEFF 		bl	CYMEMZERO
ARM GAS  C:\Users\casey\AppData\Local\Temp\ccVS9IQB.s 			page 18


 429              	.LVL26:
 430              	.LBE4:
 523:Generated_Source\PSoC4/cyfitter_cfg.c **** 		{
 431              		.loc 1 523 0 discriminator 3
 432 0132 0134     		adds	r4, r4, #1
 433              	.LVL27:
 434 0134 E4B2     		uxtb	r4, r4
 435              	.LVL28:
 436              	.L19:
 523:Generated_Source\PSoC4/cyfitter_cfg.c **** 		{
 437              		.loc 1 523 0 is_stmt 0 discriminator 1
 438 0136 012C     		cmp	r4, #1
 439 0138 EDD9     		bls	.L20
 527:Generated_Source\PSoC4/cyfitter_cfg.c **** 		}
 528:Generated_Source\PSoC4/cyfitter_cfg.c **** 
 529:Generated_Source\PSoC4/cyfitter_cfg.c **** 		cfg_write_bytes32(cy_cfg_addr_table, cy_cfg_data_table);
 440              		.loc 1 529 0 is_stmt 1
 441 013a 3449     		ldr	r1, .L21+4
 442 013c 0C31     		adds	r1, r1, #12
 443 013e 3448     		ldr	r0, .L21+8
 444 0140 2030     		adds	r0, r0, #32
 445 0142 FFF7FEFF 		bl	cfg_write_bytes32
 446              	.LVL29:
 530:Generated_Source\PSoC4/cyfitter_cfg.c **** 
 531:Generated_Source\PSoC4/cyfitter_cfg.c **** 		/* HSIOM Starting address: CYDEV_HSIOM_BASE */
 532:Generated_Source\PSoC4/cyfitter_cfg.c **** 		CY_SET_REG32((void *)(CYDEV_HSIOM_BASE), 0x080000AAu);
 447              		.loc 1 532 0
 448 0146 334A     		ldr	r2, .L21+12
 449 0148 334B     		ldr	r3, .L21+16
 450 014a 1A60     		str	r2, [r3]
 533:Generated_Source\PSoC4/cyfitter_cfg.c **** 		CY_SET_REG32((void *)(CYREG_HSIOM_PORT_SEL2), 0x0000FFFFu);
 451              		.loc 1 533 0
 452 014c 334A     		ldr	r2, .L21+20
 453 014e 344B     		ldr	r3, .L21+24
 454 0150 1A60     		str	r2, [r3]
 534:Generated_Source\PSoC4/cyfitter_cfg.c **** 		CY_SET_REG32((void *)(CYREG_HSIOM_PORT_SEL3), 0x0000EE00u);
 455              		.loc 1 534 0
 456 0152 EE22     		movs	r2, #238
 457 0154 1202     		lsls	r2, r2, #8
 458 0156 334B     		ldr	r3, .L21+28
 459 0158 1A60     		str	r2, [r3]
 535:Generated_Source\PSoC4/cyfitter_cfg.c **** 		CY_SET_REG32((void *)(CYREG_HSIOM_PORT_SEL4), 0x00000099u);
 460              		.loc 1 535 0
 461 015a 9922     		movs	r2, #153
 462 015c 324B     		ldr	r3, .L21+32
 463 015e 1A60     		str	r2, [r3]
 536:Generated_Source\PSoC4/cyfitter_cfg.c **** 		CY_SET_REG32((void *)(CYREG_HSIOM_PORT_SEL6), 0x000000EEu);
 464              		.loc 1 536 0
 465 0160 5532     		adds	r2, r2, #85
 466 0162 324B     		ldr	r3, .L21+36
 467 0164 1A60     		str	r2, [r3]
 537:Generated_Source\PSoC4/cyfitter_cfg.c **** 
 538:Generated_Source\PSoC4/cyfitter_cfg.c **** 		/* UDB_PA_0 Starting address: CYDEV_UDB_PA0_BASE */
 539:Generated_Source\PSoC4/cyfitter_cfg.c **** 		CY_SET_REG32((void *)(CYDEV_UDB_PA0_BASE), 0x00990000u);
 468              		.loc 1 539 0
 469 0166 9923     		movs	r3, #153
 470 0168 1B04     		lsls	r3, r3, #16
ARM GAS  C:\Users\casey\AppData\Local\Temp\ccVS9IQB.s 			page 19


 471 016a 314A     		ldr	r2, .L21+40
 472 016c 1360     		str	r3, [r2]
 540:Generated_Source\PSoC4/cyfitter_cfg.c **** 
 541:Generated_Source\PSoC4/cyfitter_cfg.c **** 		/* UDB_PA_1 Starting address: CYDEV_UDB_PA1_BASE */
 542:Generated_Source\PSoC4/cyfitter_cfg.c **** 		CY_SET_REG32((void *)(CYDEV_UDB_PA1_BASE), 0x00990000u);
 473              		.loc 1 542 0
 474 016e 314A     		ldr	r2, .L21+44
 475 0170 1360     		str	r3, [r2]
 543:Generated_Source\PSoC4/cyfitter_cfg.c **** 
 544:Generated_Source\PSoC4/cyfitter_cfg.c **** 		/* UDB_PA_2 Starting address: CYDEV_UDB_PA2_BASE */
 545:Generated_Source\PSoC4/cyfitter_cfg.c **** 		CY_SET_REG32((void *)(CYDEV_UDB_PA2_BASE), 0x00990000u);
 476              		.loc 1 545 0
 477 0172 314A     		ldr	r2, .L21+48
 478 0174 1360     		str	r3, [r2]
 546:Generated_Source\PSoC4/cyfitter_cfg.c **** 
 547:Generated_Source\PSoC4/cyfitter_cfg.c **** 		/* UDB_PA_4 Starting address: CYDEV_UDB_PA4_BASE */
 548:Generated_Source\PSoC4/cyfitter_cfg.c **** 		CY_SET_REG32((void *)(CYDEV_UDB_PA4_BASE), 0x00990000u);
 479              		.loc 1 548 0
 480 0176 314A     		ldr	r2, .L21+52
 481 0178 1360     		str	r3, [r2]
 549:Generated_Source\PSoC4/cyfitter_cfg.c **** 
 550:Generated_Source\PSoC4/cyfitter_cfg.c **** 		/* UDB_PA_5 Starting address: CYDEV_UDB_PA5_BASE */
 551:Generated_Source\PSoC4/cyfitter_cfg.c **** 		CY_SET_REG32((void *)(CYDEV_UDB_PA5_BASE), 0x00990000u);
 482              		.loc 1 551 0
 483 017a 314A     		ldr	r2, .L21+56
 484 017c 1360     		str	r3, [r2]
 552:Generated_Source\PSoC4/cyfitter_cfg.c **** 
 553:Generated_Source\PSoC4/cyfitter_cfg.c **** 		/* UDB_PA_7 Starting address: CYDEV_UDB_PA7_BASE */
 554:Generated_Source\PSoC4/cyfitter_cfg.c **** 		CY_SET_REG32((void *)(CYDEV_UDB_PA7_BASE), 0x00990000u);
 485              		.loc 1 554 0
 486 017e 314A     		ldr	r2, .L21+60
 487 0180 1360     		str	r3, [r2]
 555:Generated_Source\PSoC4/cyfitter_cfg.c **** 
 556:Generated_Source\PSoC4/cyfitter_cfg.c **** 		/* INT_SELECT Starting address: CYDEV_CPUSS_INT_SEL */
 557:Generated_Source\PSoC4/cyfitter_cfg.c **** 		CY_SET_REG32((void *)(CYREG_CPUSS_INT_SEL), 0x00000001u);
 488              		.loc 1 557 0
 489 0182 0123     		movs	r3, #1
 490 0184 304A     		ldr	r2, .L21+64
 491 0186 1360     		str	r3, [r2]
 558:Generated_Source\PSoC4/cyfitter_cfg.c **** 
 559:Generated_Source\PSoC4/cyfitter_cfg.c **** 		/* INT_CONFIG Starting address: CYDEV_UDB_INT_CFG */
 560:Generated_Source\PSoC4/cyfitter_cfg.c **** 		CY_SET_REG32((void *)(CYREG_UDB_INT_CFG), 0x00000001u);
 492              		.loc 1 560 0
 493 0188 304A     		ldr	r2, .L21+68
 494 018a 1360     		str	r3, [r2]
 561:Generated_Source\PSoC4/cyfitter_cfg.c **** 
 562:Generated_Source\PSoC4/cyfitter_cfg.c **** 		/* Enable UDB array and digital routing */
 563:Generated_Source\PSoC4/cyfitter_cfg.c **** 		CY_SET_XTND_REG8((void *)CYREG_UDB_UDB_WAIT_CFG, (uint8)((CY_GET_XTND_REG8((void *)CYREG_UDB_UDB_
 495              		.loc 1 563 0
 496 018c 3049     		ldr	r1, .L21+72
 497 018e 0B78     		ldrb	r3, [r1]
 498 0190 3C22     		movs	r2, #60
 499 0192 9343     		bics	r3, r2
 500 0194 1422     		movs	r2, #20
 501 0196 1343     		orrs	r3, r2
 502 0198 DBB2     		uxtb	r3, r3
 503 019a 0B70     		strb	r3, [r1]
ARM GAS  C:\Users\casey\AppData\Local\Temp\ccVS9IQB.s 			page 20


 564:Generated_Source\PSoC4/cyfitter_cfg.c **** 		CY_SET_XTND_REG8((void *)CYREG_UDB_UDB_BANK_CTL, (uint8)(CY_GET_XTND_REG8((void *)CYREG_UDB_UDB_B
 504              		.loc 1 564 0
 505 019c 2D4A     		ldr	r2, .L21+76
 506 019e 1178     		ldrb	r1, [r2]
 507 01a0 1623     		movs	r3, #22
 508 01a2 0B43     		orrs	r3, r1
 509 01a4 DBB2     		uxtb	r3, r3
 510 01a6 1370     		strb	r3, [r2]
 511              	.LBE3:
 565:Generated_Source\PSoC4/cyfitter_cfg.c **** 	}
 566:Generated_Source\PSoC4/cyfitter_cfg.c **** 
 567:Generated_Source\PSoC4/cyfitter_cfg.c **** 	/* Perform second pass device configuration. These items must be configured in specific order afte
 568:Generated_Source\PSoC4/cyfitter_cfg.c **** 	/* IOPINS0_0 Starting address: CYDEV_GPIO_PRT0_BASE */
 569:Generated_Source\PSoC4/cyfitter_cfg.c **** 	CY_SET_REG32((void *)(CYDEV_GPIO_PRT0_BASE), 0x0000001Eu);
 512              		.loc 1 569 0
 513 01a8 1E22     		movs	r2, #30
 514 01aa 2B4B     		ldr	r3, .L21+80
 515 01ac 1A60     		str	r2, [r3]
 570:Generated_Source\PSoC4/cyfitter_cfg.c **** 	CY_SET_REG32((void *)(CYREG_GPIO_PRT0_PC), 0x00246DB1u);
 516              		.loc 1 570 0
 517 01ae 2B4A     		ldr	r2, .L21+84
 518 01b0 2B4B     		ldr	r3, .L21+88
 519 01b2 1A60     		str	r2, [r3]
 571:Generated_Source\PSoC4/cyfitter_cfg.c **** 
 572:Generated_Source\PSoC4/cyfitter_cfg.c **** 	/* IOPINS0_1 Starting address: CYDEV_GPIO_PRT1_BASE */
 573:Generated_Source\PSoC4/cyfitter_cfg.c **** 	CY_SET_REG32((void *)(CYREG_GPIO_PRT1_PC), 0x00000036u);
 520              		.loc 1 573 0
 521 01b4 3622     		movs	r2, #54
 522 01b6 2B4B     		ldr	r3, .L21+92
 523 01b8 1A60     		str	r2, [r3]
 574:Generated_Source\PSoC4/cyfitter_cfg.c **** 
 575:Generated_Source\PSoC4/cyfitter_cfg.c **** 	/* IOPINS0_2 Starting address: CYDEV_GPIO_PRT2_BASE */
 576:Generated_Source\PSoC4/cyfitter_cfg.c **** 	CY_SET_REG32((void *)(CYDEV_GPIO_PRT2_BASE), 0x000000E2u);
 524              		.loc 1 576 0
 525 01ba AC32     		adds	r2, r2, #172
 526 01bc 2A4B     		ldr	r3, .L21+96
 527 01be 1A60     		str	r2, [r3]
 577:Generated_Source\PSoC4/cyfitter_cfg.c **** 	CY_SET_REG32((void *)(CYREG_GPIO_PRT2_PC), 0x00249271u);
 528              		.loc 1 577 0
 529 01c0 2A4A     		ldr	r2, .L21+100
 530 01c2 2B4B     		ldr	r3, .L21+104
 531 01c4 1A60     		str	r2, [r3]
 578:Generated_Source\PSoC4/cyfitter_cfg.c **** 	CY_SET_REG32((void *)(CYREG_GPIO_PRT2_PC2), 0x00000002u);
 532              		.loc 1 578 0
 533 01c6 0223     		movs	r3, #2
 534 01c8 2A4A     		ldr	r2, .L21+108
 535 01ca 1360     		str	r3, [r2]
 579:Generated_Source\PSoC4/cyfitter_cfg.c **** 
 580:Generated_Source\PSoC4/cyfitter_cfg.c **** 	/* IOPINS0_3 Starting address: CYDEV_GPIO_PRT3_BASE */
 581:Generated_Source\PSoC4/cyfitter_cfg.c **** 	CY_SET_REG32((void *)(CYREG_GPIO_PRT3_PC), 0x00000D80u);
 536              		.loc 1 581 0
 537 01cc D821     		movs	r1, #216
 538 01ce 0901     		lsls	r1, r1, #4
 539 01d0 294A     		ldr	r2, .L21+112
 540 01d2 1160     		str	r1, [r2]
 582:Generated_Source\PSoC4/cyfitter_cfg.c **** 
 583:Generated_Source\PSoC4/cyfitter_cfg.c **** 	/* IOPINS0_4 Starting address: CYDEV_GPIO_PRT4_BASE */
ARM GAS  C:\Users\casey\AppData\Local\Temp\ccVS9IQB.s 			page 21


 584:Generated_Source\PSoC4/cyfitter_cfg.c **** 	CY_SET_REG32((void *)(CYDEV_GPIO_PRT4_BASE), 0x00000002u);
 541              		.loc 1 584 0
 542 01d4 294A     		ldr	r2, .L21+116
 543 01d6 1360     		str	r3, [r2]
 585:Generated_Source\PSoC4/cyfitter_cfg.c **** 	CY_SET_REG32((void *)(CYREG_GPIO_PRT4_PC), 0x00040031u);
 544              		.loc 1 585 0
 545 01d8 2949     		ldr	r1, .L21+120
 546 01da 2A4A     		ldr	r2, .L21+124
 547 01dc 1160     		str	r1, [r2]
 586:Generated_Source\PSoC4/cyfitter_cfg.c **** 	CY_SET_REG32((void *)(CYREG_GPIO_PRT4_PC2), 0x00000002u);
 548              		.loc 1 586 0
 549 01de 2A4A     		ldr	r2, .L21+128
 550 01e0 1360     		str	r3, [r2]
 587:Generated_Source\PSoC4/cyfitter_cfg.c **** 
 588:Generated_Source\PSoC4/cyfitter_cfg.c **** 	/* IOPINS0_5 Starting address: CYDEV_GPIO_PRT5_BASE */
 589:Generated_Source\PSoC4/cyfitter_cfg.c **** 	CY_SET_REG32((void *)(CYREG_GPIO_PRT5_PC), 0x00030DB1u);
 551              		.loc 1 589 0
 552 01e2 2A4A     		ldr	r2, .L21+132
 553 01e4 2A4B     		ldr	r3, .L21+136
 554 01e6 1A60     		str	r2, [r3]
 590:Generated_Source\PSoC4/cyfitter_cfg.c **** 
 591:Generated_Source\PSoC4/cyfitter_cfg.c **** 	/* IOPINS0_6 Starting address: CYDEV_GPIO_PRT6_BASE */
 592:Generated_Source\PSoC4/cyfitter_cfg.c **** 	CY_SET_REG32((void *)(CYDEV_GPIO_PRT6_BASE), 0x00000003u);
 555              		.loc 1 592 0
 556 01e8 0323     		movs	r3, #3
 557 01ea 2A4A     		ldr	r2, .L21+140
 558 01ec 1360     		str	r3, [r2]
 593:Generated_Source\PSoC4/cyfitter_cfg.c **** 	CY_SET_REG32((void *)(CYREG_GPIO_PRT6_PC), 0x00008064u);
 559              		.loc 1 593 0
 560 01ee 2A49     		ldr	r1, .L21+144
 561 01f0 2A4A     		ldr	r2, .L21+148
 562 01f2 1160     		str	r1, [r2]
 594:Generated_Source\PSoC4/cyfitter_cfg.c **** 
 595:Generated_Source\PSoC4/cyfitter_cfg.c **** 	/* IOPINS0_7 Starting address: CYDEV_GPIO_PRT7_BASE */
 596:Generated_Source\PSoC4/cyfitter_cfg.c **** 	CY_SET_REG32((void *)(CYDEV_GPIO_PRT7_BASE), 0x00000003u);
 563              		.loc 1 596 0
 564 01f4 2A4A     		ldr	r2, .L21+152
 565 01f6 1360     		str	r3, [r2]
 597:Generated_Source\PSoC4/cyfitter_cfg.c **** 	CY_SET_REG32((void *)(CYREG_GPIO_PRT7_PC), 0x00000012u);
 566              		.loc 1 597 0
 567 01f8 1222     		movs	r2, #18
 568 01fa 2A4B     		ldr	r3, .L21+156
 569 01fc 1A60     		str	r2, [r3]
 598:Generated_Source\PSoC4/cyfitter_cfg.c **** 
 599:Generated_Source\PSoC4/cyfitter_cfg.c **** 
 600:Generated_Source\PSoC4/cyfitter_cfg.c **** 	/* Setup clocks based on selections from Clock DWR */
 601:Generated_Source\PSoC4/cyfitter_cfg.c **** 	ClockSetup();
 570              		.loc 1 601 0
 571 01fe FFF7FFFE 		bl	ClockSetup
 572              	.LVL30:
 602:Generated_Source\PSoC4/cyfitter_cfg.c **** 
 603:Generated_Source\PSoC4/cyfitter_cfg.c **** 	/* Perform basic analog initialization to defaults */
 604:Generated_Source\PSoC4/cyfitter_cfg.c **** 	AnalogSetDefault();
 573              		.loc 1 604 0
 574 0202 FFF7FEFF 		bl	AnalogSetDefault
 575              	.LVL31:
 605:Generated_Source\PSoC4/cyfitter_cfg.c **** 
ARM GAS  C:\Users\casey\AppData\Local\Temp\ccVS9IQB.s 			page 22


 606:Generated_Source\PSoC4/cyfitter_cfg.c **** }
 576              		.loc 1 606 0
 577              		@ sp needed
 578              	.LVL32:
 579 0206 10BD     		pop	{r4, pc}
 580              	.L22:
 581              		.align	2
 582              	.L21:
 583 0208 1C700F40 		.word	1074753564
 584 020c 00000000 		.word	.LANCHOR0
 585 0210 00010000 		.word	.LANCHOR1
 586 0214 AA000008 		.word	134217898
 587 0218 00000240 		.word	1073872896
 588 021c FFFF0000 		.word	65535
 589 0220 00020240 		.word	1073873408
 590 0224 00030240 		.word	1073873664
 591 0228 00040240 		.word	1073873920
 592 022c 00060240 		.word	1073874432
 593 0230 00500F40 		.word	1074745344
 594 0234 10500F40 		.word	1074745360
 595 0238 20500F40 		.word	1074745376
 596 023c 40500F40 		.word	1074745408
 597 0240 50500F40 		.word	1074745424
 598 0244 70500F40 		.word	1074745456
 599 0248 20001040 		.word	1074790432
 600 024c 00800F40 		.word	1074757632
 601 0250 01700F40 		.word	1074753537
 602 0254 00700F40 		.word	1074753536
 603 0258 00000440 		.word	1074003968
 604 025c B16D2400 		.word	2387377
 605 0260 08000440 		.word	1074003976
 606 0264 08010440 		.word	1074004232
 607 0268 00020440 		.word	1074004480
 608 026c 71922400 		.word	2396785
 609 0270 08020440 		.word	1074004488
 610 0274 18020440 		.word	1074004504
 611 0278 08030440 		.word	1074004744
 612 027c 00040440 		.word	1074004992
 613 0280 31000400 		.word	262193
 614 0284 08040440 		.word	1074005000
 615 0288 18040440 		.word	1074005016
 616 028c B10D0300 		.word	200113
 617 0290 08050440 		.word	1074005256
 618 0294 00060440 		.word	1074005504
 619 0298 64800000 		.word	32868
 620 029c 08060440 		.word	1074005512
 621 02a0 00070440 		.word	1074005760
 622 02a4 08070440 		.word	1074005768
 623              		.cfi_endproc
 624              	.LFE8:
 625              		.size	cyfitter_cfg, .-cyfitter_cfg
 626              		.section	.rodata
 627              		.align	2
 628              		.set	.LANCHOR0,. + 0
 629              		.set	.LANCHOR1,. + 256
 630              		.type	cfg_memset_list.4977, %object
 631              		.size	cfg_memset_list.4977, 12
ARM GAS  C:\Users\casey\AppData\Local\Temp\ccVS9IQB.s 			page 23


 632              	cfg_memset_list.4977:
 633 0000 00300F40 		.word	1074737152
 634 0004 0008     		.short	2048
 635 0006 00400F40 		.4byte	1074741248
 636 000a 0008     		.short	2048
 637              		.type	cy_cfg_data_table.4972, %object
 638              		.size	cy_cfg_data_table.4972, 276
 639              	cy_cfg_data_table.4972:
 640 000c 85       		.byte	-123
 641 000d 0D       		.byte	13
 642 000e 40       		.byte	64
 643 000f 43       		.byte	67
 644 0010 49       		.byte	73
 645 0011 FF       		.byte	-1
 646 0012 4A       		.byte	74
 647 0013 FF       		.byte	-1
 648 0014 4B       		.byte	75
 649 0015 FF       		.byte	-1
 650 0016 4F       		.byte	79
 651 0017 01       		.byte	1
 652 0018 50       		.byte	80
 653 0019 18       		.byte	24
 654 001a 52       		.byte	82
 655 001b 80       		.byte	-128
 656 001c 5A       		.byte	90
 657 001d 04       		.byte	4
 658 001e 5B       		.byte	91
 659 001f 04       		.byte	4
 660 0020 5D       		.byte	93
 661 0021 99       		.byte	-103
 662 0022 5F       		.byte	95
 663 0023 01       		.byte	1
 664 0024 60       		.byte	96
 665 0025 40       		.byte	64
 666 0026 62       		.byte	98
 667 0027 40       		.byte	64
 668 0028 64       		.byte	100
 669 0029 40       		.byte	64
 670 002a 65       		.byte	101
 671 002b 40       		.byte	64
 672 002c 66       		.byte	102
 673 002d 80       		.byte	-128
 674 002e 68       		.byte	104
 675 002f 80       		.byte	-128
 676 0030 6A       		.byte	106
 677 0031 80       		.byte	-128
 678 0032 6C       		.byte	108
 679 0033 80       		.byte	-128
 680 0034 6E       		.byte	110
 681 0035 80       		.byte	-128
 682 0036 A8       		.byte	-88
 683 0037 01       		.byte	1
 684 0038 B6       		.byte	-74
 685 0039 01       		.byte	1
 686 003a BE       		.byte	-66
 687 003b 40       		.byte	64
 688 003c C0       		.byte	-64
ARM GAS  C:\Users\casey\AppData\Local\Temp\ccVS9IQB.s 			page 24


 689 003d 43       		.byte	67
 690 003e C9       		.byte	-55
 691 003f FF       		.byte	-1
 692 0040 CA       		.byte	-54
 693 0041 FF       		.byte	-1
 694 0042 CB       		.byte	-53
 695 0043 FF       		.byte	-1
 696 0044 CD       		.byte	-51
 697 0045 83       		.byte	-125
 698 0046 CE       		.byte	-50
 699 0047 03       		.byte	3
 700 0048 CF       		.byte	-49
 701 0049 01       		.byte	1
 702 004a D0       		.byte	-48
 703 004b 18       		.byte	24
 704 004c D8       		.byte	-40
 705 004d 04       		.byte	4
 706 004e DA       		.byte	-38
 707 004f 04       		.byte	4
 708 0050 DB       		.byte	-37
 709 0051 04       		.byte	4
 710 0052 DD       		.byte	-35
 711 0053 09       		.byte	9
 712 0054 DF       		.byte	-33
 713 0055 01       		.byte	1
 714 0056 E0       		.byte	-32
 715 0057 40       		.byte	64
 716 0058 E2       		.byte	-30
 717 0059 40       		.byte	64
 718 005a E4       		.byte	-28
 719 005b 40       		.byte	64
 720 005c E5       		.byte	-27
 721 005d 40       		.byte	64
 722 005e E6       		.byte	-26
 723 005f 80       		.byte	-128
 724 0060 E8       		.byte	-24
 725 0061 80       		.byte	-128
 726 0062 EA       		.byte	-22
 727 0063 80       		.byte	-128
 728 0064 EC       		.byte	-20
 729 0065 80       		.byte	-128
 730 0066 EE       		.byte	-18
 731 0067 80       		.byte	-128
 732 0068 11       		.byte	17
 733 0069 10       		.byte	16
 734 006a 19       		.byte	25
 735 006b 40       		.byte	64
 736 006c 42       		.byte	66
 737 006d A0       		.byte	-96
 738 006e 46       		.byte	70
 739 006f A0       		.byte	-96
 740 0070 59       		.byte	89
 741 0071 40       		.byte	64
 742 0072 76       		.byte	118
 743 0073 80       		.byte	-128
 744 0074 C4       		.byte	-60
 745 0075 02       		.byte	2
ARM GAS  C:\Users\casey\AppData\Local\Temp\ccVS9IQB.s 			page 25


 746 0076 D0       		.byte	-48
 747 0077 C3       		.byte	-61
 748 0078 D6       		.byte	-42
 749 0079 08       		.byte	8
 750 007a 40       		.byte	64
 751 007b 43       		.byte	67
 752 007c 49       		.byte	73
 753 007d FF       		.byte	-1
 754 007e 4A       		.byte	74
 755 007f FF       		.byte	-1
 756 0080 4B       		.byte	75
 757 0081 FF       		.byte	-1
 758 0082 4D       		.byte	77
 759 0083 83       		.byte	-125
 760 0084 4E       		.byte	78
 761 0085 03       		.byte	3
 762 0086 4F       		.byte	79
 763 0087 01       		.byte	1
 764 0088 50       		.byte	80
 765 0089 18       		.byte	24
 766 008a 5A       		.byte	90
 767 008b 04       		.byte	4
 768 008c 5D       		.byte	93
 769 008d 09       		.byte	9
 770 008e 5F       		.byte	95
 771 008f 01       		.byte	1
 772 0090 60       		.byte	96
 773 0091 40       		.byte	64
 774 0092 62       		.byte	98
 775 0093 40       		.byte	64
 776 0094 64       		.byte	100
 777 0095 40       		.byte	64
 778 0096 65       		.byte	101
 779 0097 40       		.byte	64
 780 0098 66       		.byte	102
 781 0099 80       		.byte	-128
 782 009a 68       		.byte	104
 783 009b 80       		.byte	-128
 784 009c 6A       		.byte	106
 785 009d 80       		.byte	-128
 786 009e 6C       		.byte	108
 787 009f 80       		.byte	-128
 788 00a0 6E       		.byte	110
 789 00a1 80       		.byte	-128
 790 00a2 A2       		.byte	-94
 791 00a3 01       		.byte	1
 792 00a4 A6       		.byte	-90
 793 00a5 01       		.byte	1
 794 00a6 B0       		.byte	-80
 795 00a7 01       		.byte	1
 796 00a8 BE       		.byte	-66
 797 00a9 01       		.byte	1
 798 00aa C0       		.byte	-64
 799 00ab 43       		.byte	67
 800 00ac C5       		.byte	-59
 801 00ad EC       		.byte	-20
 802 00ae C6       		.byte	-58
ARM GAS  C:\Users\casey\AppData\Local\Temp\ccVS9IQB.s 			page 26


 803 00af 20       		.byte	32
 804 00b0 C8       		.byte	-56
 805 00b1 0B       		.byte	11
 806 00b2 C9       		.byte	-55
 807 00b3 FF       		.byte	-1
 808 00b4 CA       		.byte	-54
 809 00b5 FF       		.byte	-1
 810 00b6 CB       		.byte	-53
 811 00b7 FF       		.byte	-1
 812 00b8 CD       		.byte	-51
 813 00b9 83       		.byte	-125
 814 00ba CE       		.byte	-50
 815 00bb 03       		.byte	3
 816 00bc CF       		.byte	-49
 817 00bd 01       		.byte	1
 818 00be D0       		.byte	-48
 819 00bf 18       		.byte	24
 820 00c0 D4       		.byte	-44
 821 00c1 01       		.byte	1
 822 00c2 D6       		.byte	-42
 823 00c3 04       		.byte	4
 824 00c4 D8       		.byte	-40
 825 00c5 04       		.byte	4
 826 00c6 DA       		.byte	-38
 827 00c7 04       		.byte	4
 828 00c8 DB       		.byte	-37
 829 00c9 04       		.byte	4
 830 00ca DD       		.byte	-35
 831 00cb 99       		.byte	-103
 832 00cc DF       		.byte	-33
 833 00cd 01       		.byte	1
 834 00ce E0       		.byte	-32
 835 00cf 40       		.byte	64
 836 00d0 E2       		.byte	-30
 837 00d1 40       		.byte	64
 838 00d2 E4       		.byte	-28
 839 00d3 40       		.byte	64
 840 00d4 E5       		.byte	-27
 841 00d5 40       		.byte	64
 842 00d6 E6       		.byte	-26
 843 00d7 80       		.byte	-128
 844 00d8 E8       		.byte	-24
 845 00d9 80       		.byte	-128
 846 00da EA       		.byte	-22
 847 00db 80       		.byte	-128
 848 00dc EC       		.byte	-20
 849 00dd 80       		.byte	-128
 850 00de EE       		.byte	-18
 851 00df 80       		.byte	-128
 852 00e0 16       		.byte	22
 853 00e1 A0       		.byte	-96
 854 00e2 1E       		.byte	30
 855 00e3 80       		.byte	-128
 856 00e4 42       		.byte	66
 857 00e5 A0       		.byte	-96
 858 00e6 46       		.byte	70
 859 00e7 A0       		.byte	-96
ARM GAS  C:\Users\casey\AppData\Local\Temp\ccVS9IQB.s 			page 27


 860 00e8 4D       		.byte	77
 861 00e9 04       		.byte	4
 862 00ea 4F       		.byte	79
 863 00eb 01       		.byte	1
 864 00ec 56       		.byte	86
 865 00ed 20       		.byte	32
 866 00ee 5D       		.byte	93
 867 00ef 04       		.byte	4
 868 00f0 5E       		.byte	94
 869 00f1 80       		.byte	-128
 870 00f2 5F       		.byte	95
 871 00f3 01       		.byte	1
 872 00f4 67       		.byte	103
 873 00f5 40       		.byte	64
 874 00f6 87       		.byte	-121
 875 00f7 40       		.byte	64
 876 00f8 9A       		.byte	-102
 877 00f9 80       		.byte	-128
 878 00fa 9E       		.byte	-98
 879 00fb 20       		.byte	32
 880 00fc AD       		.byte	-83
 881 00fd 10       		.byte	16
 882 00fe C4       		.byte	-60
 883 00ff 30       		.byte	48
 884 0100 D0       		.byte	-48
 885 0101 C3       		.byte	-61
 886 0102 D6       		.byte	-42
 887 0103 D0       		.byte	-48
 888 0104 D8       		.byte	-40
 889 0105 80       		.byte	-128
 890 0106 EE       		.byte	-18
 891 0107 08       		.byte	8
 892 0108 6B       		.byte	107
 893 0109 02       		.byte	2
 894 010a DA       		.byte	-38
 895 010b 40       		.byte	64
 896 010c 9F       		.byte	-97
 897 010d 02       		.byte	2
 898 010e 87       		.byte	-121
 899 010f 02       		.byte	2
 900 0110 9F       		.byte	-97
 901 0111 02       		.byte	2
 902 0112 E6       		.byte	-26
 903 0113 40       		.byte	64
 904 0114 0B       		.byte	11
 905 0115 08       		.byte	8
 906 0116 C2       		.byte	-62
 907 0117 02       		.byte	2
 908 0118 AF       		.byte	-81
 909 0119 04       		.byte	4
 910 011a 02       		.byte	2
 911 011b 01       		.byte	1
 912 011c 11       		.byte	17
 913 011d 01       		.byte	1
 914 011e 13       		.byte	19
 915 011f 01       		.byte	1
 916              		.type	cy_cfg_addr_table.4971, %object
ARM GAS  C:\Users\casey\AppData\Local\Temp\ccVS9IQB.s 			page 28


 917              		.size	cy_cfg_addr_table.4971, 44
 918              	cy_cfg_addr_table.4971:
 919 0120 01000F40 		.word	1074724865
 920 0124 2D320F40 		.word	1074737709
 921 0128 09330F40 		.word	1074737929
 922 012c 33340F40 		.word	1074738227
 923 0130 14350F40 		.word	1074738452
 924 0134 02400F40 		.word	1074741250
 925 0138 01410F40 		.word	1074741505
 926 013c 03420F40 		.word	1074741763
 927 0140 02450F40 		.word	1074742530
 928 0144 01460F40 		.word	1074742785
 929 0148 03600F40 		.word	1074749443
 930              		.text
 931              	.Letext0:
 932              		.file 2 "c:\\program files (x86)\\cypress\\psoc creator\\4.4\\psoc creator\\import\\gnu\\arm\\5.4.
 933              		.file 3 "Generated_Source\\PSoC4\\cytypes.h"
 934              		.file 4 "Generated_Source\\PSoC4\\CyLib.h"