ARM GAS  C:\Users\M4rz4n\AppData\Local\Temp\ccrg4obQ.s 			page 1


   1              		.syntax unified
   2              		.cpu cortex-m0
   3              		.fpu softvfp
   4              		.eabi_attribute 20, 1
   5              		.eabi_attribute 21, 1
   6              		.eabi_attribute 23, 3
   7              		.eabi_attribute 24, 1
   8              		.eabi_attribute 25, 1
   9              		.eabi_attribute 26, 1
  10              		.eabi_attribute 30, 1
  11              		.eabi_attribute 34, 0
  12              		.eabi_attribute 18, 4
  13              		.thumb
  14              		.syntax unified
  15              		.file	"main.c"
  16              		.text
  17              	.Ltext0:
  18              		.cfi_sections	.debug_frame
  19              		.section	.text.Period_Reset_Handler,"ax",%progbits
  20              		.align	2
  21              		.global	Period_Reset_Handler
  22              		.code	16
  23              		.thumb_func
  24              		.type	Period_Reset_Handler, %function
  25              	Period_Reset_Handler:
  26              	.LFB35:
  27              		.file 1 "main.c"
   1:main.c        **** /* ========================================
   2:main.c        ****  *
   3:main.c        ****  * Copyright YOUR COMPANY, THE YEAR
   4:main.c        ****  * All Rights Reserved
   5:main.c        ****  * UNPUBLISHED, LICENSED SOFTWARE.
   6:main.c        ****  *
   7:main.c        ****  * CONFIDENTIAL AND PROPRIETARY INFORMATION
   8:main.c        ****  * WHICH IS THE PROPERTY OF your company.
   9:main.c        ****  *
  10:main.c        ****  * ========================================
  11:main.c        **** */
  12:main.c        **** #include <stdio.h>
  13:main.c        **** #include "main.h"
  14:main.c        **** #include "BLDC_Debug.h"
  15:main.c        **** #include "cyapicallbacks.h"
  16:main.c        **** #include "BLDC_Drive.h"
  17:main.c        **** #include "BLDC_CAN.h"
  18:main.c        **** #include "BLDC_FSM.h"
  19:main.c        **** #include "BLDC_SPI.h"
  20:main.c        **** #include "HindsightCAN/CANLibrary.h"
  21:main.c        **** #include <math.h>
  22:main.c        **** 
  23:main.c        **** // Side delay
  24:main.c        **** int16_t counter = 0;
  25:main.c        **** int16_t delay = 10;
  26:main.c        **** int16_t period = 3;
  27:main.c        **** 
  28:main.c        **** //LED
  29:main.c        **** uint8_t Can_LED = 0;
  30:main.c        **** uint8_t Debug_LED = 0;
ARM GAS  C:\Users\M4rz4n\AppData\Local\Temp\ccrg4obQ.s 			page 2


  31:main.c        **** uint8_t Error_LED = 0;
  32:main.c        **** 
  33:main.c        **** int32_t millidegreeTarget = 0;
  34:main.c        **** 
  35:main.c        **** //Uart variables
  36:main.c        **** char txData[TX_DATA_SIZE];
  37:main.c        **** 
  38:main.c        **** //drive varaible
  39:main.c        **** int16 nextPWM = 0;
  40:main.c        **** extern uint8 invalidate;
  41:main.c        **** uint8_t ignoreLimSw = 0;
  42:main.c        **** uint8_t encoderTimeOut = 0;
  43:main.c        **** uint8_t hallSensorsTimeOut = 0;
  44:main.c        **** 
  45:main.c        **** // Motor Unit Variables
  46:main.c        **** uint8_t bound_set1;
  47:main.c        **** uint8_t bound_set2;
  48:main.c        **** int32_t enc_lim_1;
  49:main.c        **** int32_t enc_lim_2;
  50:main.c        **** 
  51:main.c        **** //Status and Data Structs
  52:main.c        **** volatile uint8_t drive = 0;
  53:main.c        **** uint8_t CAN_check_delay = 0;
  54:main.c        **** CANPacket can_recieve;
  55:main.c        **** CANPacket can_send;
  56:main.c        **** 
  57:main.c        **** uint8_t address = 0;
  58:main.c        **** 
  59:main.c        **** CY_ISR(Period_Reset_Handler) {
  28              		.loc 1 59 0
  29              		.cfi_startproc
  30              		@ args = 0, pretend = 0, frame = 0
  31              		@ frame_needed = 0, uses_anonymous_args = 0
  32 0000 10B5     		push	{r4, lr}
  33              		.cfi_def_cfa_offset 8
  34              		.cfi_offset 4, -8
  35              		.cfi_offset 14, -4
  60:main.c        ****     invalidate++;
  36              		.loc 1 60 0
  37 0002 0F4A     		ldr	r2, .L4
  38 0004 1378     		ldrb	r3, [r2]
  39 0006 0133     		adds	r3, r3, #1
  40 0008 1370     		strb	r3, [r2]
  61:main.c        ****     Can_LED++;
  41              		.loc 1 61 0
  42 000a 0E4B     		ldr	r3, .L4+4
  43 000c 1A78     		ldrb	r2, [r3]
  44 000e 0132     		adds	r2, r2, #1
  45 0010 1A70     		strb	r2, [r3]
  62:main.c        ****     CAN_check_delay ++;
  46              		.loc 1 62 0
  47 0012 5A78     		ldrb	r2, [r3, #1]
  48 0014 0132     		adds	r2, r2, #1
  49 0016 5A70     		strb	r2, [r3, #1]
  63:main.c        ****     Error_LED++;
  50              		.loc 1 63 0
  51 0018 9A78     		ldrb	r2, [r3, #2]
ARM GAS  C:\Users\M4rz4n\AppData\Local\Temp\ccrg4obQ.s 			page 3


  52 001a 0132     		adds	r2, r2, #1
  53 001c D2B2     		uxtb	r2, r2
  54 001e 9A70     		strb	r2, [r3, #2]
  64:main.c        ****     Debug_LED++; // do I need this?
  55              		.loc 1 64 0
  56 0020 D978     		ldrb	r1, [r3, #3]
  57 0022 0131     		adds	r1, r1, #1
  58 0024 D970     		strb	r1, [r3, #3]
  65:main.c        **** 
  66:main.c        ****     if(invalidate >= 20){
  67:main.c        ****         //set_speed(0, 1);   
  68:main.c        ****     }
  69:main.c        ****     if(Error_LED >= 3) {
  59              		.loc 1 69 0
  60 0026 022A     		cmp	r2, #2
  61 0028 02D9     		bls	.L2
  70:main.c        ****         #ifdef ERROR_LED
  71:main.c        ****         ERROR_LED_Write(LED_OFF);
  62              		.loc 1 71 0
  63 002a 0120     		movs	r0, #1
  64 002c FFF7FEFF 		bl	ERROR_LED_Write
  65              	.LVL0:
  66              	.L2:
  72:main.c        ****         #endif
  73:main.c        ****         #ifdef DEBUG_LED1   
  74:main.c        ****         Debug_1_Write(LED_OFF);
  75:main.c        ****         #endif
  76:main.c        ****     }
  77:main.c        ****     if(Can_LED >= 3){
  67              		.loc 1 77 0
  68 0030 044B     		ldr	r3, .L4+4
  69 0032 1B78     		ldrb	r3, [r3]
  70 0034 022B     		cmp	r3, #2
  71 0036 02D9     		bls	.L1
  78:main.c        ****         #ifdef CAN_LED
  79:main.c        ****         CAN_LED_Write(LED_OFF);
  72              		.loc 1 79 0
  73 0038 0120     		movs	r0, #1
  74 003a FFF7FEFF 		bl	CAN_LED_Write
  75              	.LVL1:
  76              	.L1:
  80:main.c        ****         #endif
  81:main.c        ****     }
  82:main.c        **** }
  77              		.loc 1 82 0
  78              		@ sp needed
  79 003e 10BD     		pop	{r4, pc}
  80              	.L5:
  81              		.align	2
  82              	.L4:
  83 0040 00000000 		.word	invalidate
  84 0044 00000000 		.word	.LANCHOR0
  85              		.cfi_endproc
  86              	.LFE35:
  87              		.size	Period_Reset_Handler, .-Period_Reset_Handler
  88              		.section	.text.Pin_Limit_Handler,"ax",%progbits
  89              		.align	2
ARM GAS  C:\Users\M4rz4n\AppData\Local\Temp\ccrg4obQ.s 			page 4


  90              		.global	Pin_Limit_Handler
  91              		.code	16
  92              		.thumb_func
  93              		.type	Pin_Limit_Handler, %function
  94              	Pin_Limit_Handler:
  95              	.LFB36:
  83:main.c        ****   
  84:main.c        **** CY_ISR(Pin_Limit_Handler){
  96              		.loc 1 84 0
  97              		.cfi_startproc
  98              		@ args = 0, pretend = 0, frame = 0
  99              		@ frame_needed = 0, uses_anonymous_args = 0
 100 0000 10B5     		push	{r4, lr}
 101              		.cfi_def_cfa_offset 8
 102              		.cfi_offset 4, -8
 103              		.cfi_offset 14, -4
  85:main.c        ****     #ifdef PRINT_LIMIT_SW_TRIGGER
  86:main.c        ****     sprintf(txData,"LimitSW triggerd Stat: %x \r\n", Status_Reg_Switches_Read() & 0b11);
  87:main.c        ****     UART_UartPutString(txData);
  88:main.c        ****     #endif
  89:main.c        ****     
  90:main.c        ****     UART_UartPutString("LIMIT HIT\n\r");
 104              		.loc 1 90 0
 105 0002 1048     		ldr	r0, .L9
 106 0004 FFF7FEFF 		bl	UART_UartPutString
 107              	.LVL2:
  91:main.c        ****     
  92:main.c        ****     set_speed(GetCurrentSpeed(), ignoreLimSw);
 108              		.loc 1 92 0
 109 0008 FFF7FEFF 		bl	GetCurrentSpeed
 110              	.LVL3:
 111 000c 0E4B     		ldr	r3, .L9+4
 112 000e 1979     		ldrb	r1, [r3, #4]
 113 0010 FFF7FEFF 		bl	set_speed
 114              	.LVL4:
  93:main.c        ****     
  94:main.c        ****     #ifdef CAN_TELEM_SEND
  95:main.c        ****     AssembleLimitSwitchAlertPacket(&can_send, DEVICE_GROUP_JETSON, 
  96:main.c        ****         DEVICE_SERIAL_JETSON, Status_Reg_Switches_Read() & 0b11);
  97:main.c        ****     SendCANPacket(&can_send);
  98:main.c        ****     #endif
  99:main.c        **** 
 100:main.c        ****     if (bound_set1 && Pin_Limit_1_Read()) {
 115              		.loc 1 100 0
 116 0014 0D4B     		ldr	r3, .L9+8
 117 0016 1B78     		ldrb	r3, [r3]
 118 0018 002B     		cmp	r3, #0
 119 001a 06D0     		beq	.L7
 120              		.loc 1 100 0 is_stmt 0 discriminator 1
 121 001c FFF7FEFF 		bl	Pin_Limit_1_Read
 122              	.LVL5:
 123 0020 0028     		cmp	r0, #0
 124 0022 02D0     		beq	.L7
 101:main.c        ****         // setEncoderAtLimit(enc_lim_1);
 102:main.c        ****         UART_UartPutString("Change limit 1\n\r");
 125              		.loc 1 102 0 is_stmt 1
 126 0024 0A48     		ldr	r0, .L9+12
ARM GAS  C:\Users\M4rz4n\AppData\Local\Temp\ccrg4obQ.s 			page 5


 127 0026 FFF7FEFF 		bl	UART_UartPutString
 128              	.LVL6:
 129              	.L7:
 103:main.c        ****     }
 104:main.c        ****     if (bound_set2 && Pin_Limit_2_Read()){
 130              		.loc 1 104 0
 131 002a 0A4B     		ldr	r3, .L9+16
 132 002c 1B78     		ldrb	r3, [r3]
 133 002e 002B     		cmp	r3, #0
 134 0030 06D0     		beq	.L6
 135              		.loc 1 104 0 is_stmt 0 discriminator 1
 136 0032 FFF7FEFF 		bl	Pin_Limit_2_Read
 137              	.LVL7:
 138 0036 0028     		cmp	r0, #0
 139 0038 02D0     		beq	.L6
 105:main.c        ****         // setEncoderAtLimit(enc_lim_2);
 106:main.c        ****         UART_UartPutString("Change limit 2\n\r");
 140              		.loc 1 106 0 is_stmt 1
 141 003a 0748     		ldr	r0, .L9+20
 142 003c FFF7FEFF 		bl	UART_UartPutString
 143              	.LVL8:
 144              	.L6:
 107:main.c        ****     }
 108:main.c        **** }
 145              		.loc 1 108 0
 146              		@ sp needed
 147 0040 10BD     		pop	{r4, pc}
 148              	.L10:
 149 0042 C046     		.align	2
 150              	.L9:
 151 0044 00000000 		.word	.LC2
 152 0048 00000000 		.word	.LANCHOR0
 153 004c 00000000 		.word	bound_set1
 154 0050 0C000000 		.word	.LC6
 155 0054 00000000 		.word	bound_set2
 156 0058 20000000 		.word	.LC9
 157              		.cfi_endproc
 158              	.LFE36:
 159              		.size	Pin_Limit_Handler, .-Pin_Limit_Handler
 160              		.section	.text.Initialize,"ax",%progbits
 161              		.align	2
 162              		.global	Initialize
 163              		.code	16
 164              		.thumb_func
 165              		.type	Initialize, %function
 166              	Initialize:
 167              	.LFB38:
 109:main.c        ****     
 110:main.c        **** 
 111:main.c        **** int main(void)
 112:main.c        **** { 
 113:main.c        ****     Initialize();
 114:main.c        ****     
 115:main.c        ****     CyDelay(10);
 116:main.c        ****     uint8 data[5] = {1,0,0,0,0};
 117:main.c        ****     // set chip select high
 118:main.c        ****     TMC6100_SpiUartPutArray(data, 5);
ARM GAS  C:\Users\M4rz4n\AppData\Local\Temp\ccrg4obQ.s 			page 6


 119:main.c        ****     // set chip select low
 120:main.c        ****     uint32 gstat = TMC6100_SpiUartReadRxData();
 121:main.c        ****     // PrintIntBinary(gstat);
 122:main.c        ****     
 123:main.c        ****     for(;;)
 124:main.c        ****     {
 125:main.c        ****         //set_speed(1000*(1-cos(6.28 * delay * counter / 1000 / period)), 0);
 126:main.c        ****         //set_speed(0, 0);
 127:main.c        ****         
 128:main.c        ****         UH_Write(0);
 129:main.c        ****         UL_Write(0);
 130:main.c        ****         VH_Write(1);
 131:main.c        ****         VL_Write(0);
 132:main.c        ****         WH_Write(0);
 133:main.c        ****         WL_Write(1);
 134:main.c        ****         
 135:main.c        ****         /*UH_Write(0);
 136:main.c        ****         UL_Write(1);
 137:main.c        ****         VH_Write(1);
 138:main.c        ****         VL_Write(0);
 139:main.c        ****         WH_Write(0);
 140:main.c        ****         WL_Write(0); // not work
 141:main.c        **** */
 142:main.c        ****         //                     WL,WH,VL,VH,UL,UH
 143:main.c        **** /*        uint8_t rotorStates[6] = {0b001001, 
 144:main.c        ****                                   0b011000, 
 145:main.c        ****                                   0b010010,
 146:main.c        ****                                   0b000110, // not work?
 147:main.c        ****                                   0b100100, // work?
 148:main.c        ****                                   0b100001};
 149:main.c        **** 
 150:main.c        ****         uint8_t state = rotorStates[4];
 151:main.c        ****     
 152:main.c        ****         // write registers in UVW
 153:main.c        ****         UH_Write((state & (1 << 0)) != 0);
 154:main.c        ****         UL_Write((state & (1 << 1)) != 0);
 155:main.c        ****         VH_Write((state & (1 << 2)) != 0);
 156:main.c        ****         VL_Write((state & (1 << 3)) != 0);
 157:main.c        ****         WH_Write((state & (1 << 4)) != 0);
 158:main.c        ****         WL_Write((state & (1 << 5)) != 0);
 159:main.c        ****         */
 160:main.c        ****         
 161:main.c        ****         counter++;
 162:main.c        ****         CyDelay(delay);
 163:main.c        ****         ERROR_LED_Write(FAULT_Read());
 164:main.c        ****         /*
 165:main.c        ****         uint8 data[5] = {1,0,0,0,0};
 166:main.c        ****         // set chip select high
 167:main.c        ****         TMC6100_SpiUartPutArray(data, 5);
 168:main.c        ****         // set chip select low
 169:main.c        ****         uint32 gstat = TMC6100_SpiUartReadRxData();
 170:main.c        ****         */
 171:main.c        ****         
 172:main.c        ****         /*
 173:main.c        ****         switch(GetState()) {
 174:main.c        ****             case(UNINIT):
 175:main.c        ****                 //idle animation
ARM GAS  C:\Users\M4rz4n\AppData\Local\Temp\ccrg4obQ.s 			page 7


 176:main.c        ****                 SetStateTo(CHECK_CAN);
 177:main.c        ****                 break;
 178:main.c        ****             case(SET_PWM):
 179:main.c        ****                 set_speed(nextPWM, ignoreLimSw);
 180:main.c        ****                 SetStateTo(CHECK_CAN);
 181:main.c        ****                 break;
 182:main.c        ****             case(CALC_PID):
 183:main.c        ****                 SetPosition(millidegreeTarget);   
 184:main.c        ****                 SetStateTo(CHECK_CAN);
 185:main.c        ****                 break;
 186:main.c        ****             case(QUEUE_ERROR):
 187:main.c        ****                 SetStateTo(CHECK_CAN);
 188:main.c        ****                 break;
 189:main.c        ****             case(CHECK_CAN):
 190:main.c        ****                 NextStateFromCAN(&can_recieve, &can_send);
 191:main.c        ****                 #ifdef PRINT_CAN_PACKET
 192:main.c        ****                 PrintCanPacket(can_recieve);
 193:main.c        ****                 #endif
 194:main.c        ****                 break;
 195:main.c        ****             default:
 196:main.c        ****                 //Should Never Get Here
 197:main.c        ****                 //TODO: ERROR
 198:main.c        ****                 GotoUninitState();
 199:main.c        ****                 break;
 200:main.c        ****         }
 201:main.c        ****         
 202:main.c        ****         if (UART_SpiUartGetRxBufferSize()) {
 203:main.c        ****             DebugPrint(UART_UartGetByte());
 204:main.c        ****         }
 205:main.c        ****         */
 206:main.c        ****     }
 207:main.c        **** }
 208:main.c        **** 
 209:main.c        **** 
 210:main.c        **** 
 211:main.c        **** 
 212:main.c        **** void Initialize(void) {
 168              		.loc 1 212 0
 169              		.cfi_startproc
 170              		@ args = 0, pretend = 0, frame = 0
 171              		@ frame_needed = 0, uses_anonymous_args = 0
 172 0000 70B5     		push	{r4, r5, r6, lr}
 173              		.cfi_def_cfa_offset 16
 174              		.cfi_offset 4, -16
 175              		.cfi_offset 5, -12
 176              		.cfi_offset 6, -8
 177              		.cfi_offset 14, -4
 213:main.c        ****     CyGlobalIntEnable; /* Enable global interrupts. LED arrays need this first */
 178              		.loc 1 213 0
 179              		.syntax divided
 180              	@ 213 "main.c" 1
 181 0002 62B6     		CPSIE   i
 182              	@ 0 "" 2
 214:main.c        ****     
 215:main.c        ****     Limit_Register_InterruptEnable();
 183              		.loc 1 215 0
 184              		.thumb
ARM GAS  C:\Users\M4rz4n\AppData\Local\Temp\ccrg4obQ.s 			page 8


 185              		.syntax unified
 186 0004 FFF7FEFF 		bl	Limit_Register_InterruptEnable
 187              	.LVL9:
 216:main.c        ****     
 217:main.c        ****     address = Address_Register_Read();
 188              		.loc 1 217 0
 189 0008 FFF7FEFF 		bl	Address_Register_Read
 190              	.LVL10:
 191 000c 134C     		ldr	r4, .L12
 192 000e 6071     		strb	r0, [r4, #5]
 218:main.c        ****     
 219:main.c        ****     #ifdef ENABLE_DEBUG_UART
 220:main.c        ****     UART_Start();
 221:main.c        ****     sprintf(txData, "Dip Addr: %x \r\n", address);
 222:main.c        ****     UART_UartPutString(txData);
 223:main.c        ****     #endif
 224:main.c        ****     
 225:main.c        ****     #ifdef ERROR_LED
 226:main.c        ****     ERROR_LED_Write(~(address >> 3 & 1));
 193              		.loc 1 226 0
 194 0010 C008     		lsrs	r0, r0, #3
 195 0012 0125     		movs	r5, #1
 196 0014 2840     		ands	r0, r5
 197 0016 C343     		mvns	r3, r0
 198 0018 D8B2     		uxtb	r0, r3
 199 001a FFF7FEFF 		bl	ERROR_LED_Write
 200              	.LVL11:
 227:main.c        ****     #endif
 228:main.c        ****     #ifdef DEBUG_LED1
 229:main.c        ****     Debug_1_Write(~(address >> 1) & 1);
 230:main.c        ****     #endif 
 231:main.c        ****     #ifdef CAN_LED
 232:main.c        ****     CAN_LED_Write(~address & 1);
 201              		.loc 1 232 0
 202 001e 6079     		ldrb	r0, [r4, #5]
 203 0020 0123     		movs	r3, #1
 204 0022 5840     		eors	r0, r3
 205 0024 2840     		ands	r0, r5
 206 0026 FFF7FEFF 		bl	CAN_LED_Write
 207              	.LVL12:
 233:main.c        ****     #endif
 234:main.c        ****     
 235:main.c        ****     // Initialize protocols
 236:main.c        ****     InitCAN(0x4, (int)address);
 208              		.loc 1 236 0
 209 002a 6179     		ldrb	r1, [r4, #5]
 210 002c 0420     		movs	r0, #4
 211 002e FFF7FEFF 		bl	InitCAN
 212              	.LVL13:
 237:main.c        ****     TMC6100_Start();
 213              		.loc 1 237 0
 214 0032 FFF7FEFF 		bl	TMC6100_Start
 215              	.LVL14:
 238:main.c        ****     Current_Sensor_I2C_Start();
 216              		.loc 1 238 0
 217 0036 FFF7FEFF 		bl	Current_Sensor_I2C_Start
 218              	.LVL15:
ARM GAS  C:\Users\M4rz4n\AppData\Local\Temp\ccrg4obQ.s 			page 9


 239:main.c        ****     UART_Start();
 219              		.loc 1 239 0
 220 003a FFF7FEFF 		bl	UART_Start
 221              	.LVL16:
 240:main.c        ****     Timer_Rotor_Delay_Start();   
 222              		.loc 1 240 0
 223 003e FFF7FEFF 		bl	Timer_Rotor_Delay_Start
 224              	.LVL17:
 241:main.c        ****     Timer_Period_Reset_Start();   
 225              		.loc 1 241 0
 226 0042 FFF7FEFF 		bl	Timer_Period_Reset_Start
 227              	.LVL18:
 242:main.c        ****     
 243:main.c        ****     isr_Hall_StartEx(updateRotorState);
 228              		.loc 1 243 0
 229 0046 0648     		ldr	r0, .L12+4
 230 0048 FFF7FEFF 		bl	isr_Hall_StartEx
 231              	.LVL19:
 244:main.c        ****     isr_Limit_1_StartEx(Pin_Limit_Handler);
 232              		.loc 1 244 0
 233 004c 0548     		ldr	r0, .L12+8
 234 004e FFF7FEFF 		bl	isr_Limit_1_StartEx
 235              	.LVL20:
 245:main.c        ****     isr_Period_Reset_StartEx(Period_Reset_Handler);
 236              		.loc 1 245 0
 237 0052 0548     		ldr	r0, .L12+12
 238 0054 FFF7FEFF 		bl	isr_Period_Reset_StartEx
 239              	.LVL21:
 246:main.c        **** }
 240              		.loc 1 246 0
 241              		@ sp needed
 242 0058 70BD     		pop	{r4, r5, r6, pc}
 243              	.L13:
 244 005a C046     		.align	2
 245              	.L12:
 246 005c 00000000 		.word	.LANCHOR0
 247 0060 00000000 		.word	updateRotorState
 248 0064 00000000 		.word	Pin_Limit_Handler
 249 0068 00000000 		.word	Period_Reset_Handler
 250              		.cfi_endproc
 251              	.LFE38:
 252              		.size	Initialize, .-Initialize
 253              		.section	.text.main,"ax",%progbits
 254              		.align	2
 255              		.global	main
 256              		.code	16
 257              		.thumb_func
 258              		.type	main, %function
 259              	main:
 260              	.LFB37:
 112:main.c        ****     Initialize();
 261              		.loc 1 112 0
 262              		.cfi_startproc
 263              		@ args = 0, pretend = 0, frame = 8
 264              		@ frame_needed = 0, uses_anonymous_args = 0
 265 0000 00B5     		push	{lr}
 266              		.cfi_def_cfa_offset 4
ARM GAS  C:\Users\M4rz4n\AppData\Local\Temp\ccrg4obQ.s 			page 10


 267              		.cfi_offset 14, -4
 268 0002 83B0     		sub	sp, sp, #12
 269              		.cfi_def_cfa_offset 16
 113:main.c        ****     
 270              		.loc 1 113 0
 271 0004 FFF7FEFF 		bl	Initialize
 272              	.LVL22:
 115:main.c        ****     uint8 data[5] = {1,0,0,0,0};
 273              		.loc 1 115 0
 274 0008 0A20     		movs	r0, #10
 275 000a FFF7FEFF 		bl	CyDelay
 276              	.LVL23:
 116:main.c        ****     // set chip select high
 277              		.loc 1 116 0
 278 000e 0123     		movs	r3, #1
 279 0010 6A46     		mov	r2, sp
 280 0012 1370     		strb	r3, [r2]
 281 0014 0023     		movs	r3, #0
 282 0016 5370     		strb	r3, [r2, #1]
 283 0018 9370     		strb	r3, [r2, #2]
 284 001a D370     		strb	r3, [r2, #3]
 285 001c 1371     		strb	r3, [r2, #4]
 118:main.c        ****     // set chip select low
 286              		.loc 1 118 0
 287 001e 0521     		movs	r1, #5
 288 0020 6846     		mov	r0, sp
 289 0022 FFF7FEFF 		bl	TMC6100_SpiUartPutArray
 290              	.LVL24:
 120:main.c        ****     // PrintIntBinary(gstat);
 291              		.loc 1 120 0
 292 0026 FFF7FEFF 		bl	TMC6100_SpiUartReadRxData
 293              	.LVL25:
 294              	.L15:
 128:main.c        ****         UL_Write(0);
 295              		.loc 1 128 0 discriminator 1
 296 002a 0020     		movs	r0, #0
 297 002c FFF7FEFF 		bl	UH_Write
 298              	.LVL26:
 129:main.c        ****         VH_Write(1);
 299              		.loc 1 129 0 discriminator 1
 300 0030 0020     		movs	r0, #0
 301 0032 FFF7FEFF 		bl	UL_Write
 302              	.LVL27:
 130:main.c        ****         VL_Write(0);
 303              		.loc 1 130 0 discriminator 1
 304 0036 0120     		movs	r0, #1
 305 0038 FFF7FEFF 		bl	VH_Write
 306              	.LVL28:
 131:main.c        ****         WH_Write(0);
 307              		.loc 1 131 0 discriminator 1
 308 003c 0020     		movs	r0, #0
 309 003e FFF7FEFF 		bl	VL_Write
 310              	.LVL29:
 132:main.c        ****         WL_Write(1);
 311              		.loc 1 132 0 discriminator 1
 312 0042 0020     		movs	r0, #0
 313 0044 FFF7FEFF 		bl	WH_Write
ARM GAS  C:\Users\M4rz4n\AppData\Local\Temp\ccrg4obQ.s 			page 11


 314              	.LVL30:
 133:main.c        ****         
 315              		.loc 1 133 0 discriminator 1
 316 0048 0120     		movs	r0, #1
 317 004a FFF7FEFF 		bl	WL_Write
 318              	.LVL31:
 161:main.c        ****         CyDelay(delay);
 319              		.loc 1 161 0 discriminator 1
 320 004e 074A     		ldr	r2, .L16
 321 0050 D388     		ldrh	r3, [r2, #6]
 322 0052 0133     		adds	r3, r3, #1
 323 0054 D380     		strh	r3, [r2, #6]
 162:main.c        ****         ERROR_LED_Write(FAULT_Read());
 324              		.loc 1 162 0 discriminator 1
 325 0056 064B     		ldr	r3, .L16+4
 326 0058 0020     		movs	r0, #0
 327 005a 185E     		ldrsh	r0, [r3, r0]
 328 005c FFF7FEFF 		bl	CyDelay
 329              	.LVL32:
 163:main.c        ****         /*
 330              		.loc 1 163 0 discriminator 1
 331 0060 FFF7FEFF 		bl	FAULT_Read
 332              	.LVL33:
 333 0064 FFF7FEFF 		bl	ERROR_LED_Write
 334              	.LVL34:
 335 0068 DFE7     		b	.L15
 336              	.L17:
 337 006a C046     		.align	2
 338              	.L16:
 339 006c 00000000 		.word	.LANCHOR0
 340 0070 00000000 		.word	.LANCHOR1
 341              		.cfi_endproc
 342              	.LFE37:
 343              		.size	main, .-main
 344              		.section	.text.PrintCanPacket,"ax",%progbits
 345              		.align	2
 346              		.global	PrintCanPacket
 347              		.code	16
 348              		.thumb_func
 349              		.type	PrintCanPacket, %function
 350              	PrintCanPacket:
 351              	.LFB39:
 247:main.c        **** /*
 248:main.c        **** void DebugPrint(char input) {
 249:main.c        ****     switch(input) {
 250:main.c        ****         case 's':
 251:main.c        ****             // set motor speed to 0.5 rpm
 252:main.c        ****         case 'e':
 253:main.c        ****             sprintf(txData, "Encoder Value: %li  \r\n", QuadDec_GetCounter());
 254:main.c        ****             break;
 255:main.c        ****         case 'f':
 256:main.c        ****             sprintf(txData, "Mode: %x State:%x \r\n", GetMode(), GetState());
 257:main.c        ****             break;
 258:main.c        ****         case 'd':
 259:main.c        ****             sprintf(txData, "P: %i I: %i D: %i Conv: %i Ready: %i \r\n", 
 260:main.c        ****             GetkPosition(), GetkIntegral(), GetkDerivative(), (int) GetConversion(), PIDconstsSet()
 261:main.c        ****             break;
ARM GAS  C:\Users\M4rz4n\AppData\Local\Temp\ccrg4obQ.s 			page 12


 262:main.c        ****         case 'p':
 263:main.c        ****             sprintf(txData, "Position (mDeg): %i \r\n", GetPositionmDeg());
 264:main.c        ****             break;
 265:main.c        ****         case 'x':
 266:main.c        ****             sprintf(txData, "Value: %d  ADC range: %d-%d  mDeg range: %d-%d  usePot=%d\r\n", 
 267:main.c        ****                             GetPotVal(), GetTickMin(), GetTickMax(),
 268:main.c        ****                             GetmDegMin(), GetmDegMax(), GetUsingPot());
 269:main.c        ****             break;
 270:main.c        ****         default:
 271:main.c        ****             sprintf(txData, "what\r\n");
 272:main.c        ****             break;
 273:main.c        ****     }
 274:main.c        ****     UART_UartPutString(txData);
 275:main.c        **** }
 276:main.c        **** */
 277:main.c        **** 
 278:main.c        **** void PrintCanPacket(CANPacket receivedPacket){
 352              		.loc 1 278 0
 353              		.cfi_startproc
 354              		@ args = 0, pretend = 0, frame = 16
 355              		@ frame_needed = 0, uses_anonymous_args = 0
 356 0000 30B5     		push	{r4, r5, lr}
 357              		.cfi_def_cfa_offset 12
 358              		.cfi_offset 4, -12
 359              		.cfi_offset 5, -8
 360              		.cfi_offset 14, -4
 361 0002 87B0     		sub	sp, sp, #28
 362              		.cfi_def_cfa_offset 40
 363 0004 0390     		str	r0, [sp, #12]
 364 0006 0491     		str	r1, [sp, #16]
 365 0008 0592     		str	r2, [sp, #20]
 366              	.LVL35:
 367              	.LBB2:
 279:main.c        ****     for(int i = 0; i < receivedPacket.dlc; i++ ) {
 368              		.loc 1 279 0
 369 000a 0023     		movs	r3, #0
 370 000c 0EE0     		b	.L19
 371              	.LVL36:
 372              	.L20:
 280:main.c        ****         sprintf(txData,"Byte%d %x   ", i+1, receivedPacket.data[i]);
 373              		.loc 1 280 0 discriminator 3
 374 000e 5C1C     		adds	r4, r3, #1
 375 0010 03AA     		add	r2, sp, #12
 376 0012 9446     		mov	ip, r2
 377 0014 6344     		add	r3, r3, ip
 378              	.LVL37:
 379 0016 DB78     		ldrb	r3, [r3, #3]
 380 0018 104D     		ldr	r5, .L21
 381 001a 2200     		movs	r2, r4
 382 001c 1049     		ldr	r1, .L21+4
 383 001e 2800     		movs	r0, r5
 384 0020 FFF7FEFF 		bl	sprintf
 385              	.LVL38:
 281:main.c        ****         UART_UartPutString(txData);
 386              		.loc 1 281 0 discriminator 3
 387 0024 2800     		movs	r0, r5
 388 0026 FFF7FEFF 		bl	UART_UartPutString
ARM GAS  C:\Users\M4rz4n\AppData\Local\Temp\ccrg4obQ.s 			page 13


 389              	.LVL39:
 279:main.c        ****     for(int i = 0; i < receivedPacket.dlc; i++ ) {
 390              		.loc 1 279 0 discriminator 3
 391 002a 2300     		movs	r3, r4
 392              	.LVL40:
 393              	.L19:
 279:main.c        ****     for(int i = 0; i < receivedPacket.dlc; i++ ) {
 394              		.loc 1 279 0 is_stmt 0 discriminator 1
 395 002c 03AA     		add	r2, sp, #12
 396 002e 9278     		ldrb	r2, [r2, #2]
 397 0030 9342     		cmp	r3, r2
 398 0032 ECDB     		blt	.L20
 399              	.LBE2:
 282:main.c        ****     }
 283:main.c        **** 
 284:main.c        ****     sprintf(txData,"ID:%x %x %x\r\n",receivedPacket.id >> 10, 
 400              		.loc 1 284 0 is_stmt 1
 401 0034 03AB     		add	r3, sp, #12
 402              	.LVL41:
 403 0036 1988     		ldrh	r1, [r3]
 404 0038 8B09     		lsrs	r3, r1, #6
 405 003a 0F22     		movs	r2, #15
 406 003c 1340     		ands	r3, r2
 407 003e 8A0A     		lsrs	r2, r1, #10
 408 0040 064C     		ldr	r4, .L21
 409 0042 3F20     		movs	r0, #63
 410 0044 0140     		ands	r1, r0
 411 0046 0091     		str	r1, [sp]
 412 0048 0649     		ldr	r1, .L21+8
 413 004a 2000     		movs	r0, r4
 414 004c FFF7FEFF 		bl	sprintf
 415              	.LVL42:
 285:main.c        ****         (receivedPacket.id >> 6) & 0xF , receivedPacket.id & 0x3F);
 286:main.c        ****     UART_UartPutString(txData);
 416              		.loc 1 286 0
 417 0050 2000     		movs	r0, r4
 418 0052 FFF7FEFF 		bl	UART_UartPutString
 419              	.LVL43:
 287:main.c        **** }
 420              		.loc 1 287 0
 421 0056 07B0     		add	sp, sp, #28
 422              		@ sp needed
 423 0058 30BD     		pop	{r4, r5, pc}
 424              	.L22:
 425 005a C046     		.align	2
 426              	.L21:
 427 005c 00000000 		.word	txData
 428 0060 34000000 		.word	.LC17
 429 0064 44000000 		.word	.LC20
 430              		.cfi_endproc
 431              	.LFE39:
 432              		.size	PrintCanPacket, .-PrintCanPacket
 433              		.section	.text.ReadCAN,"ax",%progbits
 434              		.align	2
 435              		.global	ReadCAN
 436              		.code	16
 437              		.thumb_func
ARM GAS  C:\Users\M4rz4n\AppData\Local\Temp\ccrg4obQ.s 			page 14


 438              		.type	ReadCAN, %function
 439              	ReadCAN:
 440              	.LFB40:
 288:main.c        **** 
 289:main.c        **** uint16_t ReadCAN(CANPacket *receivedPacket){
 441              		.loc 1 289 0
 442              		.cfi_startproc
 443              		@ args = 0, pretend = 0, frame = 8
 444              		@ frame_needed = 0, uses_anonymous_args = 0
 445              	.LVL44:
 446 0000 10B5     		push	{r4, lr}
 447              		.cfi_def_cfa_offset 8
 448              		.cfi_offset 4, -8
 449              		.cfi_offset 14, -4
 450 0002 82B0     		sub	sp, sp, #8
 451              		.cfi_def_cfa_offset 16
 452 0004 0400     		movs	r4, r0
 290:main.c        ****     volatile int error = PollAndReceiveCANPacket(receivedPacket);
 453              		.loc 1 290 0
 454 0006 FFF7FEFF 		bl	PollAndReceiveCANPacket
 455              	.LVL45:
 456 000a 0190     		str	r0, [sp, #4]
 291:main.c        ****     if(!error){
 457              		.loc 1 291 0
 458 000c 019B     		ldr	r3, [sp, #4]
 459 000e 002B     		cmp	r3, #0
 460 0010 07D1     		bne	.L25
 292:main.c        ****         #ifdef CAN_LED
 293:main.c        ****         CAN_LED_Write(LED_ON);
 461              		.loc 1 293 0
 462 0012 0020     		movs	r0, #0
 463 0014 FFF7FEFF 		bl	CAN_LED_Write
 464              	.LVL46:
 294:main.c        ****         #endif
 295:main.c        ****         Can_LED = 0;
 465              		.loc 1 295 0
 466 0018 0022     		movs	r2, #0
 467 001a 034B     		ldr	r3, .L26
 468 001c 1A70     		strb	r2, [r3]
 296:main.c        ****         return receivedPacket->data[0];
 469              		.loc 1 296 0
 470 001e E078     		ldrb	r0, [r4, #3]
 471 0020 00E0     		b	.L24
 472              	.L25:
 297:main.c        ****     }
 298:main.c        ****     return NO_NEW_CAN_PACKET; //Means no Packet
 473              		.loc 1 298 0
 474 0022 0248     		ldr	r0, .L26+4
 475              	.L24:
 299:main.c        **** }
 476              		.loc 1 299 0
 477 0024 02B0     		add	sp, sp, #8
 478              		@ sp needed
 479              	.LVL47:
 480 0026 10BD     		pop	{r4, pc}
 481              	.L27:
 482              		.align	2
ARM GAS  C:\Users\M4rz4n\AppData\Local\Temp\ccrg4obQ.s 			page 15


 483              	.L26:
 484 0028 00000000 		.word	.LANCHOR0
 485 002c FFFF0000 		.word	65535
 486              		.cfi_endproc
 487              	.LFE40:
 488              		.size	ReadCAN, .-ReadCAN
 489              		.section	.text.DisplayErrorCode,"ax",%progbits
 490              		.align	2
 491              		.global	DisplayErrorCode
 492              		.code	16
 493              		.thumb_func
 494              		.type	DisplayErrorCode, %function
 495              	DisplayErrorCode:
 496              	.LFB41:
 300:main.c        **** 
 301:main.c        **** void DisplayErrorCode(uint8_t code) {
 497              		.loc 1 301 0
 498              		.cfi_startproc
 499              		@ args = 0, pretend = 0, frame = 0
 500              		@ frame_needed = 0, uses_anonymous_args = 0
 501              	.LVL48:
 502 0000 10B5     		push	{r4, lr}
 503              		.cfi_def_cfa_offset 8
 504              		.cfi_offset 4, -8
 505              		.cfi_offset 14, -4
 302:main.c        ****     
 303:main.c        ****     #ifdef ERROR_LED
 304:main.c        ****     ERROR_LED_Write(LED_OFF);
 506              		.loc 1 304 0
 507 0002 0120     		movs	r0, #1
 508              	.LVL49:
 509 0004 FFF7FEFF 		bl	ERROR_LED_Write
 510              	.LVL50:
 305:main.c        ****     #endif
 306:main.c        ****     #ifdef DEBUG_LED1   
 307:main.c        ****     Debug_1_Write(LED_OFF);
 308:main.c        ****     #endif
 309:main.c        ****     
 310:main.c        ****     Error_LED = 0;
 511              		.loc 1 310 0
 512 0008 0022     		movs	r2, #0
 513 000a 034B     		ldr	r3, .L29
 514 000c 9A70     		strb	r2, [r3, #2]
 311:main.c        ****     ERROR_LED_Write(LED_ON);
 515              		.loc 1 311 0
 516 000e 0020     		movs	r0, #0
 517 0010 FFF7FEFF 		bl	ERROR_LED_Write
 518              	.LVL51:
 312:main.c        ****     
 313:main.c        ****     #ifdef PRINT_MOTOR_ERROR
 314:main.c        ****         //TODO: PRINT ERROR
 315:main.c        ****     #endif
 316:main.c        **** 
 317:main.c        ****     switch(code)
 318:main.c        ****     {   
 319:main.c        ****         //case0: CAN Packet ERROR
 320:main.c        ****         case 1://Mode Error
ARM GAS  C:\Users\M4rz4n\AppData\Local\Temp\ccrg4obQ.s 			page 16


 321:main.c        ****             #ifdef DEBUG_LED1
 322:main.c        ****             Debug_1_Write(LED_ON);
 323:main.c        ****             #endif
 324:main.c        ****             break;
 325:main.c        ****         default:
 326:main.c        ****             //some error
 327:main.c        ****             break;
 328:main.c        ****     }
 329:main.c        **** 
 330:main.c        **** }
 519              		.loc 1 330 0
 520              		@ sp needed
 521 0014 10BD     		pop	{r4, pc}
 522              	.L30:
 523 0016 C046     		.align	2
 524              	.L29:
 525 0018 00000000 		.word	.LANCHOR0
 526              		.cfi_endproc
 527              	.LFE41:
 528              		.size	DisplayErrorCode, .-DisplayErrorCode
 529              		.global	address
 530              		.comm	can_send,12,4
 531              		.comm	can_recieve,12,4
 532              		.global	CAN_check_delay
 533              		.global	drive
 534              		.comm	enc_lim_2,4,4
 535              		.comm	enc_lim_1,4,4
 536              		.comm	bound_set2,1,1
 537              		.comm	bound_set1,1,1
 538              		.global	hallSensorsTimeOut
 539              		.global	encoderTimeOut
 540              		.global	ignoreLimSw
 541              		.global	nextPWM
 542              		.comm	txData,100,4
 543              		.global	millidegreeTarget
 544              		.global	Error_LED
 545              		.global	Debug_LED
 546              		.global	Can_LED
 547              		.global	period
 548              		.global	delay
 549              		.global	counter
 550              		.data
 551              		.align	1
 552              		.set	.LANCHOR1,. + 0
 553              		.type	delay, %object
 554              		.size	delay, 2
 555              	delay:
 556 0000 0A00     		.short	10
 557              		.type	period, %object
 558              		.size	period, 2
 559              	period:
 560 0002 0300     		.short	3
 561              		.section	.rodata.str1.4,"aMS",%progbits,1
 562              		.align	2
 563              	.LC2:
 564 0000 4C494D49 		.ascii	"LIMIT HIT\012\015\000"
 564      54204849 
ARM GAS  C:\Users\M4rz4n\AppData\Local\Temp\ccrg4obQ.s 			page 17


 564      540A0D00 
 565              	.LC6:
 566 000c 4368616E 		.ascii	"Change limit 1\012\015\000"
 566      6765206C 
 566      696D6974 
 566      20310A0D 
 566      00
 567 001d 000000   		.space	3
 568              	.LC9:
 569 0020 4368616E 		.ascii	"Change limit 2\012\015\000"
 569      6765206C 
 569      696D6974 
 569      20320A0D 
 569      00
 570 0031 000000   		.space	3
 571              	.LC17:
 572 0034 42797465 		.ascii	"Byte%d %x   \000"
 572      25642025 
 572      78202020 
 572      00
 573 0041 000000   		.space	3
 574              	.LC20:
 575 0044 49443A25 		.ascii	"ID:%x %x %x\015\012\000"
 575      78202578 
 575      2025780D 
 575      0A00
 576              		.bss
 577              		.align	2
 578              		.set	.LANCHOR0,. + 0
 579              		.type	Can_LED, %object
 580              		.size	Can_LED, 1
 581              	Can_LED:
 582 0000 00       		.space	1
 583              		.type	CAN_check_delay, %object
 584              		.size	CAN_check_delay, 1
 585              	CAN_check_delay:
 586 0001 00       		.space	1
 587              		.type	Error_LED, %object
 588              		.size	Error_LED, 1
 589              	Error_LED:
 590 0002 00       		.space	1
 591              		.type	Debug_LED, %object
 592              		.size	Debug_LED, 1
 593              	Debug_LED:
 594 0003 00       		.space	1
 595              		.type	ignoreLimSw, %object
 596              		.size	ignoreLimSw, 1
 597              	ignoreLimSw:
 598 0004 00       		.space	1
 599              		.type	address, %object
 600              		.size	address, 1
 601              	address:
 602 0005 00       		.space	1
 603              		.type	counter, %object
 604              		.size	counter, 2
 605              	counter:
 606 0006 0000     		.space	2
ARM GAS  C:\Users\M4rz4n\AppData\Local\Temp\ccrg4obQ.s 			page 18


 607              		.type	drive, %object
 608              		.size	drive, 1
 609              	drive:
 610 0008 00       		.space	1
 611              		.type	hallSensorsTimeOut, %object
 612              		.size	hallSensorsTimeOut, 1
 613              	hallSensorsTimeOut:
 614 0009 00       		.space	1
 615              		.type	encoderTimeOut, %object
 616              		.size	encoderTimeOut, 1
 617              	encoderTimeOut:
 618 000a 00       		.space	1
 619 000b 00       		.space	1
 620              		.type	nextPWM, %object
 621              		.size	nextPWM, 2
 622              	nextPWM:
 623 000c 0000     		.space	2
 624 000e 0000     		.space	2
 625              		.type	millidegreeTarget, %object
 626              		.size	millidegreeTarget, 4
 627              	millidegreeTarget:
 628 0010 00000000 		.space	4
 629              		.text
 630              	.Letext0:
 631              		.file 2 "c:\\program files (x86)\\cypress\\psoc creator\\4.4\\psoc creator\\import\\gnu\\arm\\5.4.
 632              		.file 3 "c:\\program files (x86)\\cypress\\psoc creator\\4.4\\psoc creator\\import\\gnu\\arm\\5.4.
 633              		.file 4 "HindsightCAN/CANPacket.h"
 634              		.file 5 "Generated_Source\\PSoC4/cytypes.h"
 635              		.file 6 "Generated_Source\\PSoC4/ERROR_LED.h"
 636              		.file 7 "Generated_Source\\PSoC4/CAN_LED.h"
 637              		.file 8 "Generated_Source\\PSoC4/UART_SPI_UART.h"
 638              		.file 9 "BLDC_Drive.h"
 639              		.file 10 "Generated_Source\\PSoC4/Pin_Limit_1.h"
 640              		.file 11 "Generated_Source\\PSoC4/Pin_Limit_2.h"
 641              		.file 12 "Generated_Source\\PSoC4/Limit_Register.h"
 642              		.file 13 "Generated_Source\\PSoC4/Address_Register.h"
 643              		.file 14 "HindsightCAN/Port.h"
 644              		.file 15 "Generated_Source\\PSoC4/TMC6100.h"
 645              		.file 16 "Generated_Source\\PSoC4/Current_Sensor_I2C.h"
 646              		.file 17 "Generated_Source\\PSoC4/UART.h"
 647              		.file 18 "Generated_Source\\PSoC4/Timer_Rotor_Delay.h"
 648              		.file 19 "Generated_Source\\PSoC4/Timer_Period_Reset.h"
 649              		.file 20 "Generated_Source\\PSoC4/isr_Hall.h"
 650              		.file 21 "Generated_Source\\PSoC4/isr_Limit_1.h"
 651              		.file 22 "Generated_Source\\PSoC4/isr_Period_Reset.h"
 652              		.file 23 "Generated_Source\\PSoC4/CyLib.h"
 653              		.file 24 "Generated_Source\\PSoC4/TMC6100_SPI_UART.h"
 654              		.file 25 "Generated_Source\\PSoC4/UH.h"
 655              		.file 26 "Generated_Source\\PSoC4/UL.h"
 656              		.file 27 "Generated_Source\\PSoC4/VH.h"
 657              		.file 28 "Generated_Source\\PSoC4/VL.h"
 658              		.file 29 "Generated_Source\\PSoC4/WH.h"
 659              		.file 30 "Generated_Source\\PSoC4/WL.h"
 660              		.file 31 "Generated_Source\\PSoC4/FAULT.h"
 661              		.file 32 "c:\\program files (x86)\\cypress\\psoc creator\\4.4\\psoc creator\\import\\gnu\\arm\\5.4