ARM GAS  C:\Users\lucbu\AppData\Local\Temp\ccCG4loW.s 			page 1


   1              		.syntax unified
   2              		.cpu cortex-m0
   3              		.fpu softvfp
   4              		.eabi_attribute 20, 1
   5              		.eabi_attribute 21, 1
   6              		.eabi_attribute 23, 3
   7              		.eabi_attribute 24, 1
   8              		.eabi_attribute 25, 1
   9              		.eabi_attribute 26, 1
  10              		.eabi_attribute 30, 1
  11              		.eabi_attribute 34, 0
  12              		.eabi_attribute 18, 4
  13              		.thumb
  14              		.syntax unified
  15              		.file	"main.c"
  16              		.text
  17              	.Ltext0:
  18              		.cfi_sections	.debug_frame
  19              		.section	.text.Pin_SW_Handler,"ax",%progbits
  20              		.align	2
  21              		.global	Pin_SW_Handler
  22              		.code	16
  23              		.thumb_func
  24              		.type	Pin_SW_Handler, %function
  25              	Pin_SW_Handler:
  26              	.LFB34:
  27              		.file 1 "main.c"
   1:main.c        **** /* ========================================
   2:main.c        ****  *
   3:main.c        ****  * Copyright YOUR COMPANY, THE YEAR
   4:main.c        ****  * All Rights Reserved
   5:main.c        ****  * UNPUBLISHED, LICENSED SOFTWARE.
   6:main.c        ****  *
   7:main.c        ****  * CONFIDENTIAL AND PROPRIETARY INFORMATION
   8:main.c        ****  * WHICH IS THE PROPERTY OF your company.
   9:main.c        ****  *
  10:main.c        ****  * ========================================
  11:main.c        **** */
  12:main.c        **** #include "project.h"
  13:main.c        **** 
  14:main.c        **** CY_ISR(Pin_SW_Handler)
  15:main.c        **** {
  28              		.loc 1 15 0
  29              		.cfi_startproc
  30              		@ args = 0, pretend = 0, frame = 0
  31              		@ frame_needed = 0, uses_anonymous_args = 0
  32 0000 10B5     		push	{r4, lr}
  33              		.cfi_def_cfa_offset 8
  34              		.cfi_offset 4, -8
  35              		.cfi_offset 14, -4
  16:main.c        ****     PIN_2_Write(~ PIN_2_Read());
  36              		.loc 1 16 0
  37 0002 FFF7FEFF 		bl	PIN_2_Read
  38              	.LVL0:
  39 0006 C043     		mvns	r0, r0
  40 0008 C0B2     		uxtb	r0, r0
  41 000a FFF7FEFF 		bl	PIN_2_Write
ARM GAS  C:\Users\lucbu\AppData\Local\Temp\ccCG4loW.s 			page 2


  42              	.LVL1:
  17:main.c        **** }
  43              		.loc 1 17 0
  44              		@ sp needed
  45 000e 10BD     		pop	{r4, pc}
  46              		.cfi_endproc
  47              	.LFE34:
  48              		.size	Pin_SW_Handler, .-Pin_SW_Handler
  49              		.section	.text.main,"ax",%progbits
  50              		.align	2
  51              		.global	main
  52              		.code	16
  53              		.thumb_func
  54              		.type	main, %function
  55              	main:
  56              	.LFB35:
  18:main.c        **** int main(void)
  19:main.c        **** {
  57              		.loc 1 19 0
  58              		.cfi_startproc
  59              		@ Volatile: function does not return.
  60              		@ args = 0, pretend = 0, frame = 0
  61              		@ frame_needed = 0, uses_anonymous_args = 0
  62 0000 10B5     		push	{r4, lr}
  63              		.cfi_def_cfa_offset 8
  64              		.cfi_offset 4, -8
  65              		.cfi_offset 14, -4
  20:main.c        ****     CyGlobalIntEnable; /* Enable global interrupts. */
  66              		.loc 1 20 0
  67              		.syntax divided
  68              	@ 20 "main.c" 1
  69 0002 62B6     		CPSIE   i
  70              	@ 0 "" 2
  71              		.thumb
  72              		.syntax unified
  73              	.L3:
  21:main.c        **** 
  22:main.c        ****     /* Place your initialization/startup code here (e.g. MyInst_Start()) */
  23:main.c        **** 
  24:main.c        ****     for(;;)
  25:main.c        ****     {
  26:main.c        ****         /* Place your application code here. */
  27:main.c        ****         PIN_2_Write(! Pin_SW_Read());
  74              		.loc 1 27 0 discriminator 1
  75 0004 FFF7FEFF 		bl	Pin_SW_Read
  76              	.LVL2:
  77 0008 4342     		rsbs	r3, r0, #0
  78 000a 5841     		adcs	r0, r0, r3
  79 000c C0B2     		uxtb	r0, r0
  80 000e FFF7FEFF 		bl	PIN_2_Write
  81              	.LVL3:
  82 0012 F7E7     		b	.L3
  83              		.cfi_endproc
  84              	.LFE35:
  85              		.size	main, .-main
  86              		.text
  87              	.Letext0:
ARM GAS  C:\Users\lucbu\AppData\Local\Temp\ccCG4loW.s 			page 3


  88              		.file 2 "Generated_Source\\PSoC4/PIN_2.h"
  89              		.file 3 "Generated_Source\\PSoC4/Pin_SW.h"